ARM GAS  C:\Users\HANSSU~1\AppData\Local\Temp\cctzYOdj.s 			page 1


   1              		.syntax unified
   2              		.cpu cortex-m3
   3              		.fpu softvfp
   4              		.eabi_attribute 20, 1
   5              		.eabi_attribute 21, 1
   6              		.eabi_attribute 23, 3
   7              		.eabi_attribute 24, 1
   8              		.eabi_attribute 25, 1
   9              		.eabi_attribute 26, 1
  10              		.eabi_attribute 30, 6
  11              		.eabi_attribute 34, 1
  12              		.eabi_attribute 18, 4
  13              		.thumb
  14              		.file	"Counter_7.c"
  15              		.text
  16              	.Ltext0:
  17              		.cfi_sections	.debug_frame
  18              		.global	Counter_7_initVar
  19              		.bss
  20              		.type	Counter_7_initVar, %object
  21              		.size	Counter_7_initVar, 1
  22              	Counter_7_initVar:
  23 0000 00       		.space	1
  24              		.section	.text.Counter_7_Init,"ax",%progbits
  25              		.align	2
  26              		.global	Counter_7_Init
  27              		.thumb
  28              		.thumb_func
  29              		.type	Counter_7_Init, %function
  30              	Counter_7_Init:
  31              	.LFB0:
  32              		.file 1 ".\\Generated_Source\\PSoC5\\Counter_7.c"
   1:.\Generated_Source\PSoC5/Counter_7.c **** /*******************************************************************************
   2:.\Generated_Source\PSoC5/Counter_7.c **** * File Name: Counter_7.c  
   3:.\Generated_Source\PSoC5/Counter_7.c **** * Version 2.40
   4:.\Generated_Source\PSoC5/Counter_7.c **** *
   5:.\Generated_Source\PSoC5/Counter_7.c **** *  Description:
   6:.\Generated_Source\PSoC5/Counter_7.c **** *     The Counter component consists of a 8, 16, 24 or 32-bit counter with
   7:.\Generated_Source\PSoC5/Counter_7.c **** *     a selectable period between 2 and 2^Width - 1.  
   8:.\Generated_Source\PSoC5/Counter_7.c **** *
   9:.\Generated_Source\PSoC5/Counter_7.c **** *   Note:
  10:.\Generated_Source\PSoC5/Counter_7.c **** *     None
  11:.\Generated_Source\PSoC5/Counter_7.c **** *
  12:.\Generated_Source\PSoC5/Counter_7.c **** *******************************************************************************
  13:.\Generated_Source\PSoC5/Counter_7.c **** * Copyright 2008-2012, Cypress Semiconductor Corporation.  All rights reserved.
  14:.\Generated_Source\PSoC5/Counter_7.c **** * You may use this file only in accordance with the license, terms, conditions, 
  15:.\Generated_Source\PSoC5/Counter_7.c **** * disclaimers, and limitations in the end user license agreement accompanying 
  16:.\Generated_Source\PSoC5/Counter_7.c **** * the software package with which this file was provided.
  17:.\Generated_Source\PSoC5/Counter_7.c **** ********************************************************************************/
  18:.\Generated_Source\PSoC5/Counter_7.c **** 
  19:.\Generated_Source\PSoC5/Counter_7.c **** #include "Counter_7.h"
  20:.\Generated_Source\PSoC5/Counter_7.c **** 
  21:.\Generated_Source\PSoC5/Counter_7.c **** uint8 Counter_7_initVar = 0u;
  22:.\Generated_Source\PSoC5/Counter_7.c **** 
  23:.\Generated_Source\PSoC5/Counter_7.c **** 
  24:.\Generated_Source\PSoC5/Counter_7.c **** /*******************************************************************************
  25:.\Generated_Source\PSoC5/Counter_7.c **** * Function Name: Counter_7_Init
ARM GAS  C:\Users\HANSSU~1\AppData\Local\Temp\cctzYOdj.s 			page 2


  26:.\Generated_Source\PSoC5/Counter_7.c **** ********************************************************************************
  27:.\Generated_Source\PSoC5/Counter_7.c **** * Summary:
  28:.\Generated_Source\PSoC5/Counter_7.c **** *     Initialize to the schematic state
  29:.\Generated_Source\PSoC5/Counter_7.c **** * 
  30:.\Generated_Source\PSoC5/Counter_7.c **** * Parameters:  
  31:.\Generated_Source\PSoC5/Counter_7.c **** *  void  
  32:.\Generated_Source\PSoC5/Counter_7.c **** *
  33:.\Generated_Source\PSoC5/Counter_7.c **** * Return: 
  34:.\Generated_Source\PSoC5/Counter_7.c **** *  void
  35:.\Generated_Source\PSoC5/Counter_7.c **** *
  36:.\Generated_Source\PSoC5/Counter_7.c **** *******************************************************************************/
  37:.\Generated_Source\PSoC5/Counter_7.c **** void Counter_7_Init(void) 
  38:.\Generated_Source\PSoC5/Counter_7.c **** {
  33              		.loc 1 38 0
  34              		.cfi_startproc
  35              		@ args = 0, pretend = 0, frame = 8
  36              		@ frame_needed = 1, uses_anonymous_args = 0
  37 0000 80B5     		push	{r7, lr}
  38              	.LCFI0:
  39              		.cfi_def_cfa_offset 8
  40              		.cfi_offset 7, -8
  41              		.cfi_offset 14, -4
  42 0002 82B0     		sub	sp, sp, #8
  43              	.LCFI1:
  44              		.cfi_def_cfa_offset 16
  45 0004 00AF     		add	r7, sp, #0
  46              	.LCFI2:
  47              		.cfi_def_cfa_register 7
  39:.\Generated_Source\PSoC5/Counter_7.c ****         #if (!Counter_7_UsingFixedFunction && !Counter_7_ControlRegRemoved)
  40:.\Generated_Source\PSoC5/Counter_7.c ****             uint8 ctrl;
  41:.\Generated_Source\PSoC5/Counter_7.c ****         #endif /* (!Counter_7_UsingFixedFunction && !Counter_7_ControlRegRemoved) */
  42:.\Generated_Source\PSoC5/Counter_7.c ****         
  43:.\Generated_Source\PSoC5/Counter_7.c ****         #if(!Counter_7_UsingFixedFunction) 
  44:.\Generated_Source\PSoC5/Counter_7.c ****             /* Interrupt State Backup for Critical Region*/
  45:.\Generated_Source\PSoC5/Counter_7.c ****             uint8 Counter_7_interruptState;
  46:.\Generated_Source\PSoC5/Counter_7.c ****         #endif /* (!Counter_7_UsingFixedFunction) */
  47:.\Generated_Source\PSoC5/Counter_7.c ****         
  48:.\Generated_Source\PSoC5/Counter_7.c ****         #if (Counter_7_UsingFixedFunction)
  49:.\Generated_Source\PSoC5/Counter_7.c ****             /* Clear all bits but the enable bit (if it's already set for Timer operation */
  50:.\Generated_Source\PSoC5/Counter_7.c ****             Counter_7_CONTROL &= Counter_7_CTRL_ENABLE;
  51:.\Generated_Source\PSoC5/Counter_7.c ****             
  52:.\Generated_Source\PSoC5/Counter_7.c ****             /* Clear the mode bits for continuous run mode */
  53:.\Generated_Source\PSoC5/Counter_7.c ****             #if (CY_PSOC5A)
  54:.\Generated_Source\PSoC5/Counter_7.c ****                 Counter_7_CONTROL2 &= ((uint8)(~Counter_7_CTRL_MODE_MASK));
  55:.\Generated_Source\PSoC5/Counter_7.c ****             #endif /* (CY_PSOC5A) */
  56:.\Generated_Source\PSoC5/Counter_7.c ****             #if (CY_PSOC3 || CY_PSOC5LP)
  57:.\Generated_Source\PSoC5/Counter_7.c ****                 Counter_7_CONTROL3 &= ((uint8)(~Counter_7_CTRL_MODE_MASK));                
  58:.\Generated_Source\PSoC5/Counter_7.c ****             #endif /* (CY_PSOC3 || CY_PSOC5LP) */
  59:.\Generated_Source\PSoC5/Counter_7.c ****             /* Check if One Shot mode is enabled i.e. RunMode !=0*/
  60:.\Generated_Source\PSoC5/Counter_7.c ****             #if (Counter_7_RunModeUsed != 0x0u)
  61:.\Generated_Source\PSoC5/Counter_7.c ****                 /* Set 3rd bit of Control register to enable one shot mode */
  62:.\Generated_Source\PSoC5/Counter_7.c ****                 Counter_7_CONTROL |= Counter_7_ONESHOT;
  63:.\Generated_Source\PSoC5/Counter_7.c ****             #endif /* (Counter_7_RunModeUsed != 0x0u) */
  64:.\Generated_Source\PSoC5/Counter_7.c ****             
  65:.\Generated_Source\PSoC5/Counter_7.c ****             /* Set the IRQ to use the status register interrupts */
  66:.\Generated_Source\PSoC5/Counter_7.c ****             Counter_7_CONTROL2 |= Counter_7_CTRL2_IRQ_SEL;
  67:.\Generated_Source\PSoC5/Counter_7.c ****             
ARM GAS  C:\Users\HANSSU~1\AppData\Local\Temp\cctzYOdj.s 			page 3


  68:.\Generated_Source\PSoC5/Counter_7.c ****             /* Clear and Set SYNCTC and SYNCCMP bits of RT1 register */
  69:.\Generated_Source\PSoC5/Counter_7.c ****             Counter_7_RT1 &= ((uint8)(~Counter_7_RT1_MASK));
  70:.\Generated_Source\PSoC5/Counter_7.c ****             Counter_7_RT1 |= Counter_7_SYNC;     
  71:.\Generated_Source\PSoC5/Counter_7.c ****                     
  72:.\Generated_Source\PSoC5/Counter_7.c ****             /*Enable DSI Sync all all inputs of the Timer*/
  73:.\Generated_Source\PSoC5/Counter_7.c ****             Counter_7_RT1 &= ((uint8)(~Counter_7_SYNCDSI_MASK));
  74:.\Generated_Source\PSoC5/Counter_7.c ****             Counter_7_RT1 |= Counter_7_SYNCDSI_EN;
  75:.\Generated_Source\PSoC5/Counter_7.c **** 
  76:.\Generated_Source\PSoC5/Counter_7.c ****         #else
  77:.\Generated_Source\PSoC5/Counter_7.c ****             #if(!Counter_7_ControlRegRemoved)
  78:.\Generated_Source\PSoC5/Counter_7.c ****             /* Set the default compare mode defined in the parameter */
  79:.\Generated_Source\PSoC5/Counter_7.c ****             ctrl = Counter_7_CONTROL & ((uint8)(~Counter_7_CTRL_CMPMODE_MASK));
  48              		.loc 1 79 0
  49 0006 46F27853 		movw	r3, #25976
  50 000a C4F20003 		movt	r3, 16384
  51 000e 1B78     		ldrb	r3, [r3, #0]
  52 0010 DBB2     		uxtb	r3, r3
  53 0012 23F00703 		bic	r3, r3, #7
  54 0016 FB71     		strb	r3, [r7, #7]
  80:.\Generated_Source\PSoC5/Counter_7.c ****             Counter_7_CONTROL = ctrl | Counter_7_DEFAULT_COMPARE_MODE;
  55              		.loc 1 80 0
  56 0018 46F27853 		movw	r3, #25976
  57 001c C4F20003 		movt	r3, 16384
  58 0020 FA79     		ldrb	r2, [r7, #7]
  59 0022 42F00102 		orr	r2, r2, #1
  60 0026 D2B2     		uxtb	r2, r2
  61 0028 1A70     		strb	r2, [r3, #0]
  81:.\Generated_Source\PSoC5/Counter_7.c ****             
  82:.\Generated_Source\PSoC5/Counter_7.c ****             /* Set the default capture mode defined in the parameter */
  83:.\Generated_Source\PSoC5/Counter_7.c ****             ctrl = Counter_7_CONTROL & ((uint8)(~Counter_7_CTRL_CAPMODE_MASK));
  62              		.loc 1 83 0
  63 002a 46F27853 		movw	r3, #25976
  64 002e C4F20003 		movt	r3, 16384
  65 0032 1B78     		ldrb	r3, [r3, #0]
  66 0034 DBB2     		uxtb	r3, r3
  67 0036 23F00303 		bic	r3, r3, #3
  68 003a FB71     		strb	r3, [r7, #7]
  84:.\Generated_Source\PSoC5/Counter_7.c ****             
  85:.\Generated_Source\PSoC5/Counter_7.c ****             #if( 0 != Counter_7_CAPTURE_MODE_CONF)
  86:.\Generated_Source\PSoC5/Counter_7.c ****                 Counter_7_CONTROL = ctrl | Counter_7_DEFAULT_CAPTURE_MODE;
  87:.\Generated_Source\PSoC5/Counter_7.c ****             #else
  88:.\Generated_Source\PSoC5/Counter_7.c ****                 Counter_7_CONTROL = ctrl;
  69              		.loc 1 88 0
  70 003c 46F27853 		movw	r3, #25976
  71 0040 C4F20003 		movt	r3, 16384
  72 0044 FA79     		ldrb	r2, [r7, #7]
  73 0046 1A70     		strb	r2, [r3, #0]
  89:.\Generated_Source\PSoC5/Counter_7.c ****             #endif /* 0 != Counter_7_CAPTURE_MODE */ 
  90:.\Generated_Source\PSoC5/Counter_7.c ****             
  91:.\Generated_Source\PSoC5/Counter_7.c ****             #endif /* (!Counter_7_ControlRegRemoved) */
  92:.\Generated_Source\PSoC5/Counter_7.c ****         #endif /* (Counter_7_UsingFixedFunction) */
  93:.\Generated_Source\PSoC5/Counter_7.c ****         
  94:.\Generated_Source\PSoC5/Counter_7.c ****         /* Clear all data in the FIFO's */
  95:.\Generated_Source\PSoC5/Counter_7.c ****         #if (!Counter_7_UsingFixedFunction)
  96:.\Generated_Source\PSoC5/Counter_7.c ****             Counter_7_ClearFIFO();
  74              		.loc 1 96 0
  75 0048 FFF7FEFF 		bl	Counter_7_ClearFIFO
ARM GAS  C:\Users\HANSSU~1\AppData\Local\Temp\cctzYOdj.s 			page 4


  97:.\Generated_Source\PSoC5/Counter_7.c ****         #endif /* (!Counter_7_UsingFixedFunction) */
  98:.\Generated_Source\PSoC5/Counter_7.c ****         
  99:.\Generated_Source\PSoC5/Counter_7.c ****         /* Set Initial values from Configuration */
 100:.\Generated_Source\PSoC5/Counter_7.c ****         Counter_7_WritePeriod(Counter_7_INIT_PERIOD_VALUE);
  76              		.loc 1 100 0
  77 004c 47F6F870 		movw	r0, #32760
  78 0050 FFF7FEFF 		bl	Counter_7_WritePeriod
 101:.\Generated_Source\PSoC5/Counter_7.c ****         #if (!(Counter_7_UsingFixedFunction && (CY_PSOC5A)))
 102:.\Generated_Source\PSoC5/Counter_7.c ****             Counter_7_WriteCounter(Counter_7_INIT_COUNTER_VALUE);
  79              		.loc 1 102 0
  80 0054 47F6F870 		movw	r0, #32760
  81 0058 FFF7FEFF 		bl	Counter_7_WriteCounter
 103:.\Generated_Source\PSoC5/Counter_7.c ****         #endif /* (!(Counter_7_UsingFixedFunction && (CY_PSOC5A))) */
 104:.\Generated_Source\PSoC5/Counter_7.c ****         Counter_7_SetInterruptMode(Counter_7_INIT_INTERRUPTS_MASK);
  82              		.loc 1 104 0
  83 005c 4FF00000 		mov	r0, #0
  84 0060 FFF7FEFF 		bl	Counter_7_SetInterruptMode
 105:.\Generated_Source\PSoC5/Counter_7.c ****         
 106:.\Generated_Source\PSoC5/Counter_7.c ****         #if (!Counter_7_UsingFixedFunction)
 107:.\Generated_Source\PSoC5/Counter_7.c ****             /* Read the status register to clear the unwanted interrupts */
 108:.\Generated_Source\PSoC5/Counter_7.c ****             (void)Counter_7_ReadStatusRegister();
  85              		.loc 1 108 0
  86 0064 FFF7FEFF 		bl	Counter_7_ReadStatusRegister
 109:.\Generated_Source\PSoC5/Counter_7.c ****             /* Set the compare value (only available to non-fixed function implementation */
 110:.\Generated_Source\PSoC5/Counter_7.c ****             Counter_7_WriteCompare(Counter_7_INIT_COMPARE_VALUE);
  87              		.loc 1 110 0
  88 0068 4FF6FF70 		movw	r0, #65535
  89 006c FFF7FEFF 		bl	Counter_7_WriteCompare
 111:.\Generated_Source\PSoC5/Counter_7.c ****             /* Use the interrupt output of the status register for IRQ output */
 112:.\Generated_Source\PSoC5/Counter_7.c ****             
 113:.\Generated_Source\PSoC5/Counter_7.c ****             /* CyEnterCriticalRegion and CyExitCriticalRegion are used to mark following region cri
 114:.\Generated_Source\PSoC5/Counter_7.c ****             /* Enter Critical Region*/
 115:.\Generated_Source\PSoC5/Counter_7.c ****             Counter_7_interruptState = CyEnterCriticalSection();
  90              		.loc 1 115 0
  91 0070 FFF7FEFF 		bl	CyEnterCriticalSection
  92 0074 0346     		mov	r3, r0
  93 0076 BB71     		strb	r3, [r7, #6]
 116:.\Generated_Source\PSoC5/Counter_7.c ****             
 117:.\Generated_Source\PSoC5/Counter_7.c ****             Counter_7_STATUS_AUX_CTRL |= Counter_7_STATUS_ACTL_INT_EN_MASK;
  94              		.loc 1 117 0
  95 0078 46F29453 		movw	r3, #26004
  96 007c C4F20003 		movt	r3, 16384
  97 0080 46F29452 		movw	r2, #26004
  98 0084 C4F20002 		movt	r2, 16384
  99 0088 1278     		ldrb	r2, [r2, #0]
 100 008a D2B2     		uxtb	r2, r2
 101 008c 42F01002 		orr	r2, r2, #16
 102 0090 D2B2     		uxtb	r2, r2
 103 0092 1A70     		strb	r2, [r3, #0]
 118:.\Generated_Source\PSoC5/Counter_7.c ****             
 119:.\Generated_Source\PSoC5/Counter_7.c ****             /* Exit Critical Region*/
 120:.\Generated_Source\PSoC5/Counter_7.c ****             CyExitCriticalSection(Counter_7_interruptState);
 104              		.loc 1 120 0
 105 0094 BB79     		ldrb	r3, [r7, #6]	@ zero_extendqisi2
 106 0096 1846     		mov	r0, r3
 107 0098 FFF7FEFF 		bl	CyExitCriticalSection
 121:.\Generated_Source\PSoC5/Counter_7.c ****             
ARM GAS  C:\Users\HANSSU~1\AppData\Local\Temp\cctzYOdj.s 			page 5


 122:.\Generated_Source\PSoC5/Counter_7.c ****         #endif /* (!Counter_7_UsingFixedFunction) */
 123:.\Generated_Source\PSoC5/Counter_7.c **** }
 108              		.loc 1 123 0
 109 009c 07F10807 		add	r7, r7, #8
 110 00a0 BD46     		mov	sp, r7
 111 00a2 80BD     		pop	{r7, pc}
 112              		.cfi_endproc
 113              	.LFE0:
 114              		.size	Counter_7_Init, .-Counter_7_Init
 115              		.section	.text.Counter_7_Enable,"ax",%progbits
 116              		.align	2
 117              		.global	Counter_7_Enable
 118              		.thumb
 119              		.thumb_func
 120              		.type	Counter_7_Enable, %function
 121              	Counter_7_Enable:
 122              	.LFB1:
 124:.\Generated_Source\PSoC5/Counter_7.c **** 
 125:.\Generated_Source\PSoC5/Counter_7.c **** 
 126:.\Generated_Source\PSoC5/Counter_7.c **** /*******************************************************************************
 127:.\Generated_Source\PSoC5/Counter_7.c **** * Function Name: Counter_7_Enable
 128:.\Generated_Source\PSoC5/Counter_7.c **** ********************************************************************************
 129:.\Generated_Source\PSoC5/Counter_7.c **** * Summary:
 130:.\Generated_Source\PSoC5/Counter_7.c **** *     Enable the Counter
 131:.\Generated_Source\PSoC5/Counter_7.c **** * 
 132:.\Generated_Source\PSoC5/Counter_7.c **** * Parameters:  
 133:.\Generated_Source\PSoC5/Counter_7.c **** *  void  
 134:.\Generated_Source\PSoC5/Counter_7.c **** *
 135:.\Generated_Source\PSoC5/Counter_7.c **** * Return: 
 136:.\Generated_Source\PSoC5/Counter_7.c **** *  void
 137:.\Generated_Source\PSoC5/Counter_7.c **** *
 138:.\Generated_Source\PSoC5/Counter_7.c **** * Side Effects: 
 139:.\Generated_Source\PSoC5/Counter_7.c **** *   If the Enable mode is set to Hardware only then this function has no effect 
 140:.\Generated_Source\PSoC5/Counter_7.c **** *   on the operation of the counter.
 141:.\Generated_Source\PSoC5/Counter_7.c **** *
 142:.\Generated_Source\PSoC5/Counter_7.c **** *******************************************************************************/
 143:.\Generated_Source\PSoC5/Counter_7.c **** void Counter_7_Enable(void) 
 144:.\Generated_Source\PSoC5/Counter_7.c **** {
 123              		.loc 1 144 0
 124              		.cfi_startproc
 125              		@ args = 0, pretend = 0, frame = 0
 126              		@ frame_needed = 1, uses_anonymous_args = 0
 127              		@ link register save eliminated.
 128 0000 80B4     		push	{r7}
 129              	.LCFI3:
 130              		.cfi_def_cfa_offset 4
 131              		.cfi_offset 7, -4
 132 0002 00AF     		add	r7, sp, #0
 133              	.LCFI4:
 134              		.cfi_def_cfa_register 7
 145:.\Generated_Source\PSoC5/Counter_7.c ****     /* Globally Enable the Fixed Function Block chosen */
 146:.\Generated_Source\PSoC5/Counter_7.c ****     #if (Counter_7_UsingFixedFunction)
 147:.\Generated_Source\PSoC5/Counter_7.c ****         Counter_7_GLOBAL_ENABLE |= Counter_7_BLOCK_EN_MASK;
 148:.\Generated_Source\PSoC5/Counter_7.c ****         Counter_7_GLOBAL_STBY_ENABLE |= Counter_7_BLOCK_STBY_EN_MASK;
 149:.\Generated_Source\PSoC5/Counter_7.c ****     #endif /* (Counter_7_UsingFixedFunction) */  
 150:.\Generated_Source\PSoC5/Counter_7.c ****         
 151:.\Generated_Source\PSoC5/Counter_7.c ****     /* Enable the counter from the control register  */
ARM GAS  C:\Users\HANSSU~1\AppData\Local\Temp\cctzYOdj.s 			page 6


 152:.\Generated_Source\PSoC5/Counter_7.c ****     /* If Fixed Function then make sure Mode is set correctly */
 153:.\Generated_Source\PSoC5/Counter_7.c ****     /* else make sure reset is clear */
 154:.\Generated_Source\PSoC5/Counter_7.c ****     #if(!Counter_7_ControlRegRemoved || Counter_7_UsingFixedFunction)
 155:.\Generated_Source\PSoC5/Counter_7.c ****         Counter_7_CONTROL |= Counter_7_CTRL_ENABLE;                
 135              		.loc 1 155 0
 136 0004 46F27853 		movw	r3, #25976
 137 0008 C4F20003 		movt	r3, 16384
 138 000c 46F27852 		movw	r2, #25976
 139 0010 C4F20002 		movt	r2, 16384
 140 0014 1278     		ldrb	r2, [r2, #0]
 141 0016 D2B2     		uxtb	r2, r2
 142 0018 62F07F02 		orn	r2, r2, #127
 143 001c D2B2     		uxtb	r2, r2
 144 001e 1A70     		strb	r2, [r3, #0]
 156:.\Generated_Source\PSoC5/Counter_7.c ****     #endif /* (!Counter_7_ControlRegRemoved || Counter_7_UsingFixedFunction) */
 157:.\Generated_Source\PSoC5/Counter_7.c ****     
 158:.\Generated_Source\PSoC5/Counter_7.c **** }
 145              		.loc 1 158 0
 146 0020 BD46     		mov	sp, r7
 147 0022 80BC     		pop	{r7}
 148 0024 7047     		bx	lr
 149              		.cfi_endproc
 150              	.LFE1:
 151              		.size	Counter_7_Enable, .-Counter_7_Enable
 152 0026 00BF     		.section	.text.Counter_7_Start,"ax",%progbits
 153              		.align	2
 154              		.global	Counter_7_Start
 155              		.thumb
 156              		.thumb_func
 157              		.type	Counter_7_Start, %function
 158              	Counter_7_Start:
 159              	.LFB2:
 159:.\Generated_Source\PSoC5/Counter_7.c **** 
 160:.\Generated_Source\PSoC5/Counter_7.c **** 
 161:.\Generated_Source\PSoC5/Counter_7.c **** /*******************************************************************************
 162:.\Generated_Source\PSoC5/Counter_7.c **** * Function Name: Counter_7_Start
 163:.\Generated_Source\PSoC5/Counter_7.c **** ********************************************************************************
 164:.\Generated_Source\PSoC5/Counter_7.c **** * Summary:
 165:.\Generated_Source\PSoC5/Counter_7.c **** *  Enables the counter for operation 
 166:.\Generated_Source\PSoC5/Counter_7.c **** *
 167:.\Generated_Source\PSoC5/Counter_7.c **** * Parameters:  
 168:.\Generated_Source\PSoC5/Counter_7.c **** *  void  
 169:.\Generated_Source\PSoC5/Counter_7.c **** *
 170:.\Generated_Source\PSoC5/Counter_7.c **** * Return: 
 171:.\Generated_Source\PSoC5/Counter_7.c **** *  void
 172:.\Generated_Source\PSoC5/Counter_7.c **** *
 173:.\Generated_Source\PSoC5/Counter_7.c **** * Global variables:
 174:.\Generated_Source\PSoC5/Counter_7.c **** *  Counter_7_initVar: Is modified when this function is called for the  
 175:.\Generated_Source\PSoC5/Counter_7.c **** *   first time. Is used to ensure that initialization happens only once.
 176:.\Generated_Source\PSoC5/Counter_7.c **** *
 177:.\Generated_Source\PSoC5/Counter_7.c **** *******************************************************************************/
 178:.\Generated_Source\PSoC5/Counter_7.c **** void Counter_7_Start(void) 
 179:.\Generated_Source\PSoC5/Counter_7.c **** {
 160              		.loc 1 179 0
 161              		.cfi_startproc
 162              		@ args = 0, pretend = 0, frame = 0
 163              		@ frame_needed = 1, uses_anonymous_args = 0
ARM GAS  C:\Users\HANSSU~1\AppData\Local\Temp\cctzYOdj.s 			page 7


 164 0000 80B5     		push	{r7, lr}
 165              	.LCFI5:
 166              		.cfi_def_cfa_offset 8
 167              		.cfi_offset 7, -8
 168              		.cfi_offset 14, -4
 169 0002 00AF     		add	r7, sp, #0
 170              	.LCFI6:
 171              		.cfi_def_cfa_register 7
 180:.\Generated_Source\PSoC5/Counter_7.c ****     if(Counter_7_initVar == 0u)
 172              		.loc 1 180 0
 173 0004 40F20003 		movw	r3, #:lower16:Counter_7_initVar
 174 0008 C0F20003 		movt	r3, #:upper16:Counter_7_initVar
 175 000c 1B78     		ldrb	r3, [r3, #0]	@ zero_extendqisi2
 176 000e 002B     		cmp	r3, #0
 177 0010 08D1     		bne	.L4
 181:.\Generated_Source\PSoC5/Counter_7.c ****     {
 182:.\Generated_Source\PSoC5/Counter_7.c ****         Counter_7_Init();
 178              		.loc 1 182 0
 179 0012 FFF7FEFF 		bl	Counter_7_Init
 183:.\Generated_Source\PSoC5/Counter_7.c ****         
 184:.\Generated_Source\PSoC5/Counter_7.c ****         Counter_7_initVar = 1u; /* Clear this bit for Initialization */        
 180              		.loc 1 184 0
 181 0016 40F20003 		movw	r3, #:lower16:Counter_7_initVar
 182 001a C0F20003 		movt	r3, #:upper16:Counter_7_initVar
 183 001e 4FF00102 		mov	r2, #1
 184 0022 1A70     		strb	r2, [r3, #0]
 185              	.L4:
 185:.\Generated_Source\PSoC5/Counter_7.c ****     }
 186:.\Generated_Source\PSoC5/Counter_7.c ****     
 187:.\Generated_Source\PSoC5/Counter_7.c ****     /* Enable the Counter */
 188:.\Generated_Source\PSoC5/Counter_7.c ****     Counter_7_Enable();        
 186              		.loc 1 188 0
 187 0024 FFF7FEFF 		bl	Counter_7_Enable
 189:.\Generated_Source\PSoC5/Counter_7.c **** }
 188              		.loc 1 189 0
 189 0028 80BD     		pop	{r7, pc}
 190              		.cfi_endproc
 191              	.LFE2:
 192              		.size	Counter_7_Start, .-Counter_7_Start
 193 002a 00BF     		.section	.text.Counter_7_Stop,"ax",%progbits
 194              		.align	2
 195              		.global	Counter_7_Stop
 196              		.thumb
 197              		.thumb_func
 198              		.type	Counter_7_Stop, %function
 199              	Counter_7_Stop:
 200              	.LFB3:
 190:.\Generated_Source\PSoC5/Counter_7.c **** 
 191:.\Generated_Source\PSoC5/Counter_7.c **** 
 192:.\Generated_Source\PSoC5/Counter_7.c **** /*******************************************************************************
 193:.\Generated_Source\PSoC5/Counter_7.c **** * Function Name: Counter_7_Stop
 194:.\Generated_Source\PSoC5/Counter_7.c **** ********************************************************************************
 195:.\Generated_Source\PSoC5/Counter_7.c **** * Summary:
 196:.\Generated_Source\PSoC5/Counter_7.c **** * Halts the counter, but does not change any modes or disable interrupts.
 197:.\Generated_Source\PSoC5/Counter_7.c **** *
 198:.\Generated_Source\PSoC5/Counter_7.c **** * Parameters:  
 199:.\Generated_Source\PSoC5/Counter_7.c **** *  void  
ARM GAS  C:\Users\HANSSU~1\AppData\Local\Temp\cctzYOdj.s 			page 8


 200:.\Generated_Source\PSoC5/Counter_7.c **** *
 201:.\Generated_Source\PSoC5/Counter_7.c **** * Return: 
 202:.\Generated_Source\PSoC5/Counter_7.c **** *  void
 203:.\Generated_Source\PSoC5/Counter_7.c **** *
 204:.\Generated_Source\PSoC5/Counter_7.c **** * Side Effects: If the Enable mode is set to Hardware only then this function
 205:.\Generated_Source\PSoC5/Counter_7.c **** *               has no effect on the operation of the counter.
 206:.\Generated_Source\PSoC5/Counter_7.c **** *
 207:.\Generated_Source\PSoC5/Counter_7.c **** *******************************************************************************/
 208:.\Generated_Source\PSoC5/Counter_7.c **** void Counter_7_Stop(void) 
 209:.\Generated_Source\PSoC5/Counter_7.c **** {
 201              		.loc 1 209 0
 202              		.cfi_startproc
 203              		@ args = 0, pretend = 0, frame = 0
 204              		@ frame_needed = 1, uses_anonymous_args = 0
 205              		@ link register save eliminated.
 206 0000 80B4     		push	{r7}
 207              	.LCFI7:
 208              		.cfi_def_cfa_offset 4
 209              		.cfi_offset 7, -4
 210 0002 00AF     		add	r7, sp, #0
 211              	.LCFI8:
 212              		.cfi_def_cfa_register 7
 210:.\Generated_Source\PSoC5/Counter_7.c ****     /* Disable Counter */
 211:.\Generated_Source\PSoC5/Counter_7.c ****     #if(!Counter_7_ControlRegRemoved || Counter_7_UsingFixedFunction)
 212:.\Generated_Source\PSoC5/Counter_7.c ****         Counter_7_CONTROL &= ((uint8)(~Counter_7_CTRL_ENABLE));        
 213              		.loc 1 212 0
 214 0004 46F27853 		movw	r3, #25976
 215 0008 C4F20003 		movt	r3, 16384
 216 000c 46F27852 		movw	r2, #25976
 217 0010 C4F20002 		movt	r2, 16384
 218 0014 1278     		ldrb	r2, [r2, #0]
 219 0016 D2B2     		uxtb	r2, r2
 220 0018 02F07F02 		and	r2, r2, #127
 221 001c D2B2     		uxtb	r2, r2
 222 001e 1A70     		strb	r2, [r3, #0]
 213:.\Generated_Source\PSoC5/Counter_7.c ****     #endif /* (!Counter_7_ControlRegRemoved || Counter_7_UsingFixedFunction) */
 214:.\Generated_Source\PSoC5/Counter_7.c ****     
 215:.\Generated_Source\PSoC5/Counter_7.c ****     /* Globally disable the Fixed Function Block chosen */
 216:.\Generated_Source\PSoC5/Counter_7.c ****     #if (Counter_7_UsingFixedFunction)
 217:.\Generated_Source\PSoC5/Counter_7.c ****         Counter_7_GLOBAL_ENABLE &= ((uint8)(~Counter_7_BLOCK_EN_MASK));
 218:.\Generated_Source\PSoC5/Counter_7.c ****         Counter_7_GLOBAL_STBY_ENABLE &= ((uint8)(~Counter_7_BLOCK_STBY_EN_MASK));
 219:.\Generated_Source\PSoC5/Counter_7.c ****     #endif /* (Counter_7_UsingFixedFunction) */
 220:.\Generated_Source\PSoC5/Counter_7.c **** }
 223              		.loc 1 220 0
 224 0020 BD46     		mov	sp, r7
 225 0022 80BC     		pop	{r7}
 226 0024 7047     		bx	lr
 227              		.cfi_endproc
 228              	.LFE3:
 229              		.size	Counter_7_Stop, .-Counter_7_Stop
 230 0026 00BF     		.section	.text.Counter_7_SetInterruptMode,"ax",%progbits
 231              		.align	2
 232              		.global	Counter_7_SetInterruptMode
 233              		.thumb
 234              		.thumb_func
 235              		.type	Counter_7_SetInterruptMode, %function
 236              	Counter_7_SetInterruptMode:
ARM GAS  C:\Users\HANSSU~1\AppData\Local\Temp\cctzYOdj.s 			page 9


 237              	.LFB4:
 221:.\Generated_Source\PSoC5/Counter_7.c **** 
 222:.\Generated_Source\PSoC5/Counter_7.c **** 
 223:.\Generated_Source\PSoC5/Counter_7.c **** /*******************************************************************************
 224:.\Generated_Source\PSoC5/Counter_7.c **** * Function Name: Counter_7_SetInterruptMode
 225:.\Generated_Source\PSoC5/Counter_7.c **** ********************************************************************************
 226:.\Generated_Source\PSoC5/Counter_7.c **** * Summary:
 227:.\Generated_Source\PSoC5/Counter_7.c **** * Configures which interrupt sources are enabled to generate the final interrupt
 228:.\Generated_Source\PSoC5/Counter_7.c **** *
 229:.\Generated_Source\PSoC5/Counter_7.c **** * Parameters:  
 230:.\Generated_Source\PSoC5/Counter_7.c **** *  InterruptsMask: This parameter is an or'd collection of the status bits
 231:.\Generated_Source\PSoC5/Counter_7.c **** *                   which will be allowed to generate the counters interrupt.   
 232:.\Generated_Source\PSoC5/Counter_7.c **** *
 233:.\Generated_Source\PSoC5/Counter_7.c **** * Return: 
 234:.\Generated_Source\PSoC5/Counter_7.c **** *  void
 235:.\Generated_Source\PSoC5/Counter_7.c **** *
 236:.\Generated_Source\PSoC5/Counter_7.c **** *******************************************************************************/
 237:.\Generated_Source\PSoC5/Counter_7.c **** void Counter_7_SetInterruptMode(uint8 interruptsMask) 
 238:.\Generated_Source\PSoC5/Counter_7.c **** {
 238              		.loc 1 238 0
 239              		.cfi_startproc
 240              		@ args = 0, pretend = 0, frame = 8
 241              		@ frame_needed = 1, uses_anonymous_args = 0
 242              		@ link register save eliminated.
 243 0000 80B4     		push	{r7}
 244              	.LCFI9:
 245              		.cfi_def_cfa_offset 4
 246              		.cfi_offset 7, -4
 247 0002 83B0     		sub	sp, sp, #12
 248              	.LCFI10:
 249              		.cfi_def_cfa_offset 16
 250 0004 00AF     		add	r7, sp, #0
 251              	.LCFI11:
 252              		.cfi_def_cfa_register 7
 253 0006 0346     		mov	r3, r0
 254 0008 FB71     		strb	r3, [r7, #7]
 239:.\Generated_Source\PSoC5/Counter_7.c ****     Counter_7_STATUS_MASK = interruptsMask;
 255              		.loc 1 239 0
 256 000a 46F28453 		movw	r3, #25988
 257 000e C4F20003 		movt	r3, 16384
 258 0012 FA79     		ldrb	r2, [r7, #7]
 259 0014 1A70     		strb	r2, [r3, #0]
 240:.\Generated_Source\PSoC5/Counter_7.c **** }
 260              		.loc 1 240 0
 261 0016 07F10C07 		add	r7, r7, #12
 262 001a BD46     		mov	sp, r7
 263 001c 80BC     		pop	{r7}
 264 001e 7047     		bx	lr
 265              		.cfi_endproc
 266              	.LFE4:
 267              		.size	Counter_7_SetInterruptMode, .-Counter_7_SetInterruptMode
 268              		.section	.text.Counter_7_ReadStatusRegister,"ax",%progbits
 269              		.align	2
 270              		.global	Counter_7_ReadStatusRegister
 271              		.thumb
 272              		.thumb_func
 273              		.type	Counter_7_ReadStatusRegister, %function
ARM GAS  C:\Users\HANSSU~1\AppData\Local\Temp\cctzYOdj.s 			page 10


 274              	Counter_7_ReadStatusRegister:
 275              	.LFB5:
 241:.\Generated_Source\PSoC5/Counter_7.c **** 
 242:.\Generated_Source\PSoC5/Counter_7.c **** 
 243:.\Generated_Source\PSoC5/Counter_7.c **** /*******************************************************************************
 244:.\Generated_Source\PSoC5/Counter_7.c **** * Function Name: Counter_7_ReadStatusRegister
 245:.\Generated_Source\PSoC5/Counter_7.c **** ********************************************************************************
 246:.\Generated_Source\PSoC5/Counter_7.c **** * Summary:
 247:.\Generated_Source\PSoC5/Counter_7.c **** *   Reads the status register and returns it's state. This function should use
 248:.\Generated_Source\PSoC5/Counter_7.c **** *       defined types for the bit-field information as the bits in this
 249:.\Generated_Source\PSoC5/Counter_7.c **** *       register may be permuteable.
 250:.\Generated_Source\PSoC5/Counter_7.c **** *
 251:.\Generated_Source\PSoC5/Counter_7.c **** * Parameters:  
 252:.\Generated_Source\PSoC5/Counter_7.c **** *  void
 253:.\Generated_Source\PSoC5/Counter_7.c **** *
 254:.\Generated_Source\PSoC5/Counter_7.c **** * Return: 
 255:.\Generated_Source\PSoC5/Counter_7.c **** *  (uint8) The contents of the status register
 256:.\Generated_Source\PSoC5/Counter_7.c **** *
 257:.\Generated_Source\PSoC5/Counter_7.c **** * Side Effects:
 258:.\Generated_Source\PSoC5/Counter_7.c **** *   Status register bits may be clear on read. 
 259:.\Generated_Source\PSoC5/Counter_7.c **** *
 260:.\Generated_Source\PSoC5/Counter_7.c **** *******************************************************************************/
 261:.\Generated_Source\PSoC5/Counter_7.c **** uint8   Counter_7_ReadStatusRegister(void) 
 262:.\Generated_Source\PSoC5/Counter_7.c **** {
 276              		.loc 1 262 0
 277              		.cfi_startproc
 278              		@ args = 0, pretend = 0, frame = 0
 279              		@ frame_needed = 1, uses_anonymous_args = 0
 280              		@ link register save eliminated.
 281 0000 80B4     		push	{r7}
 282              	.LCFI12:
 283              		.cfi_def_cfa_offset 4
 284              		.cfi_offset 7, -4
 285 0002 00AF     		add	r7, sp, #0
 286              	.LCFI13:
 287              		.cfi_def_cfa_register 7
 263:.\Generated_Source\PSoC5/Counter_7.c ****     return Counter_7_STATUS;
 288              		.loc 1 263 0
 289 0004 46F26453 		movw	r3, #25956
 290 0008 C4F20003 		movt	r3, 16384
 291 000c 1B78     		ldrb	r3, [r3, #0]
 292 000e DBB2     		uxtb	r3, r3
 264:.\Generated_Source\PSoC5/Counter_7.c **** }
 293              		.loc 1 264 0
 294 0010 1846     		mov	r0, r3
 295 0012 BD46     		mov	sp, r7
 296 0014 80BC     		pop	{r7}
 297 0016 7047     		bx	lr
 298              		.cfi_endproc
 299              	.LFE5:
 300              		.size	Counter_7_ReadStatusRegister, .-Counter_7_ReadStatusRegister
 301              		.section	.text.Counter_7_ReadControlRegister,"ax",%progbits
 302              		.align	2
 303              		.global	Counter_7_ReadControlRegister
 304              		.thumb
 305              		.thumb_func
 306              		.type	Counter_7_ReadControlRegister, %function
ARM GAS  C:\Users\HANSSU~1\AppData\Local\Temp\cctzYOdj.s 			page 11


 307              	Counter_7_ReadControlRegister:
 308              	.LFB6:
 265:.\Generated_Source\PSoC5/Counter_7.c **** 
 266:.\Generated_Source\PSoC5/Counter_7.c **** 
 267:.\Generated_Source\PSoC5/Counter_7.c **** #if(!Counter_7_ControlRegRemoved)
 268:.\Generated_Source\PSoC5/Counter_7.c **** /*******************************************************************************
 269:.\Generated_Source\PSoC5/Counter_7.c **** * Function Name: Counter_7_ReadControlRegister
 270:.\Generated_Source\PSoC5/Counter_7.c **** ********************************************************************************
 271:.\Generated_Source\PSoC5/Counter_7.c **** * Summary:
 272:.\Generated_Source\PSoC5/Counter_7.c **** *   Reads the control register and returns it's state. This function should use
 273:.\Generated_Source\PSoC5/Counter_7.c **** *       defined types for the bit-field information as the bits in this
 274:.\Generated_Source\PSoC5/Counter_7.c **** *       register may be permuteable.
 275:.\Generated_Source\PSoC5/Counter_7.c **** *
 276:.\Generated_Source\PSoC5/Counter_7.c **** * Parameters:  
 277:.\Generated_Source\PSoC5/Counter_7.c **** *  void
 278:.\Generated_Source\PSoC5/Counter_7.c **** *
 279:.\Generated_Source\PSoC5/Counter_7.c **** * Return: 
 280:.\Generated_Source\PSoC5/Counter_7.c **** *  (uint8) The contents of the control register
 281:.\Generated_Source\PSoC5/Counter_7.c **** *
 282:.\Generated_Source\PSoC5/Counter_7.c **** *******************************************************************************/
 283:.\Generated_Source\PSoC5/Counter_7.c **** uint8   Counter_7_ReadControlRegister(void) 
 284:.\Generated_Source\PSoC5/Counter_7.c **** {
 309              		.loc 1 284 0
 310              		.cfi_startproc
 311              		@ args = 0, pretend = 0, frame = 0
 312              		@ frame_needed = 1, uses_anonymous_args = 0
 313              		@ link register save eliminated.
 314 0000 80B4     		push	{r7}
 315              	.LCFI14:
 316              		.cfi_def_cfa_offset 4
 317              		.cfi_offset 7, -4
 318 0002 00AF     		add	r7, sp, #0
 319              	.LCFI15:
 320              		.cfi_def_cfa_register 7
 285:.\Generated_Source\PSoC5/Counter_7.c ****     return Counter_7_CONTROL;
 321              		.loc 1 285 0
 322 0004 46F27853 		movw	r3, #25976
 323 0008 C4F20003 		movt	r3, 16384
 324 000c 1B78     		ldrb	r3, [r3, #0]
 325 000e DBB2     		uxtb	r3, r3
 286:.\Generated_Source\PSoC5/Counter_7.c **** }
 326              		.loc 1 286 0
 327 0010 1846     		mov	r0, r3
 328 0012 BD46     		mov	sp, r7
 329 0014 80BC     		pop	{r7}
 330 0016 7047     		bx	lr
 331              		.cfi_endproc
 332              	.LFE6:
 333              		.size	Counter_7_ReadControlRegister, .-Counter_7_ReadControlRegister
 334              		.section	.text.Counter_7_WriteControlRegister,"ax",%progbits
 335              		.align	2
 336              		.global	Counter_7_WriteControlRegister
 337              		.thumb
 338              		.thumb_func
 339              		.type	Counter_7_WriteControlRegister, %function
 340              	Counter_7_WriteControlRegister:
 341              	.LFB7:
ARM GAS  C:\Users\HANSSU~1\AppData\Local\Temp\cctzYOdj.s 			page 12


 287:.\Generated_Source\PSoC5/Counter_7.c **** 
 288:.\Generated_Source\PSoC5/Counter_7.c **** 
 289:.\Generated_Source\PSoC5/Counter_7.c **** /*******************************************************************************
 290:.\Generated_Source\PSoC5/Counter_7.c **** * Function Name: Counter_7_WriteControlRegister
 291:.\Generated_Source\PSoC5/Counter_7.c **** ********************************************************************************
 292:.\Generated_Source\PSoC5/Counter_7.c **** * Summary:
 293:.\Generated_Source\PSoC5/Counter_7.c **** *   Sets the bit-field of the control register.  This function should use
 294:.\Generated_Source\PSoC5/Counter_7.c **** *       defined types for the bit-field information as the bits in this
 295:.\Generated_Source\PSoC5/Counter_7.c **** *       register may be permuteable.
 296:.\Generated_Source\PSoC5/Counter_7.c **** *
 297:.\Generated_Source\PSoC5/Counter_7.c **** * Parameters:  
 298:.\Generated_Source\PSoC5/Counter_7.c **** *  void
 299:.\Generated_Source\PSoC5/Counter_7.c **** *
 300:.\Generated_Source\PSoC5/Counter_7.c **** * Return: 
 301:.\Generated_Source\PSoC5/Counter_7.c **** *  (uint8) The contents of the control register
 302:.\Generated_Source\PSoC5/Counter_7.c **** *
 303:.\Generated_Source\PSoC5/Counter_7.c **** *******************************************************************************/
 304:.\Generated_Source\PSoC5/Counter_7.c **** void    Counter_7_WriteControlRegister(uint8 control) 
 305:.\Generated_Source\PSoC5/Counter_7.c **** {
 342              		.loc 1 305 0
 343              		.cfi_startproc
 344              		@ args = 0, pretend = 0, frame = 8
 345              		@ frame_needed = 1, uses_anonymous_args = 0
 346              		@ link register save eliminated.
 347 0000 80B4     		push	{r7}
 348              	.LCFI16:
 349              		.cfi_def_cfa_offset 4
 350              		.cfi_offset 7, -4
 351 0002 83B0     		sub	sp, sp, #12
 352              	.LCFI17:
 353              		.cfi_def_cfa_offset 16
 354 0004 00AF     		add	r7, sp, #0
 355              	.LCFI18:
 356              		.cfi_def_cfa_register 7
 357 0006 0346     		mov	r3, r0
 358 0008 FB71     		strb	r3, [r7, #7]
 306:.\Generated_Source\PSoC5/Counter_7.c ****     Counter_7_CONTROL = control;
 359              		.loc 1 306 0
 360 000a 46F27853 		movw	r3, #25976
 361 000e C4F20003 		movt	r3, 16384
 362 0012 FA79     		ldrb	r2, [r7, #7]
 363 0014 1A70     		strb	r2, [r3, #0]
 307:.\Generated_Source\PSoC5/Counter_7.c **** }
 364              		.loc 1 307 0
 365 0016 07F10C07 		add	r7, r7, #12
 366 001a BD46     		mov	sp, r7
 367 001c 80BC     		pop	{r7}
 368 001e 7047     		bx	lr
 369              		.cfi_endproc
 370              	.LFE7:
 371              		.size	Counter_7_WriteControlRegister, .-Counter_7_WriteControlRegister
 372              		.section	.text.Counter_7_WriteCounter,"ax",%progbits
 373              		.align	2
 374              		.global	Counter_7_WriteCounter
 375              		.thumb
 376              		.thumb_func
 377              		.type	Counter_7_WriteCounter, %function
ARM GAS  C:\Users\HANSSU~1\AppData\Local\Temp\cctzYOdj.s 			page 13


 378              	Counter_7_WriteCounter:
 379              	.LFB8:
 308:.\Generated_Source\PSoC5/Counter_7.c **** 
 309:.\Generated_Source\PSoC5/Counter_7.c **** #endif  /* (!Counter_7_ControlRegRemoved) */
 310:.\Generated_Source\PSoC5/Counter_7.c **** 
 311:.\Generated_Source\PSoC5/Counter_7.c **** 
 312:.\Generated_Source\PSoC5/Counter_7.c **** #if (!(Counter_7_UsingFixedFunction && (CY_PSOC5A)))
 313:.\Generated_Source\PSoC5/Counter_7.c **** /*******************************************************************************
 314:.\Generated_Source\PSoC5/Counter_7.c **** * Function Name: Counter_7_WriteCounter
 315:.\Generated_Source\PSoC5/Counter_7.c **** ********************************************************************************
 316:.\Generated_Source\PSoC5/Counter_7.c **** * Summary:
 317:.\Generated_Source\PSoC5/Counter_7.c **** *   This funtion is used to set the counter to a specific value
 318:.\Generated_Source\PSoC5/Counter_7.c **** *
 319:.\Generated_Source\PSoC5/Counter_7.c **** * Parameters:  
 320:.\Generated_Source\PSoC5/Counter_7.c **** *  counter:  New counter value. 
 321:.\Generated_Source\PSoC5/Counter_7.c **** *
 322:.\Generated_Source\PSoC5/Counter_7.c **** * Return: 
 323:.\Generated_Source\PSoC5/Counter_7.c **** *  void 
 324:.\Generated_Source\PSoC5/Counter_7.c **** *
 325:.\Generated_Source\PSoC5/Counter_7.c **** *******************************************************************************/
 326:.\Generated_Source\PSoC5/Counter_7.c **** void Counter_7_WriteCounter(uint16 counter) \
 327:.\Generated_Source\PSoC5/Counter_7.c ****                                    
 328:.\Generated_Source\PSoC5/Counter_7.c **** {
 380              		.loc 1 328 0
 381              		.cfi_startproc
 382              		@ args = 0, pretend = 0, frame = 8
 383              		@ frame_needed = 1, uses_anonymous_args = 0
 384              		@ link register save eliminated.
 385 0000 80B4     		push	{r7}
 386              	.LCFI19:
 387              		.cfi_def_cfa_offset 4
 388              		.cfi_offset 7, -4
 389 0002 83B0     		sub	sp, sp, #12
 390              	.LCFI20:
 391              		.cfi_def_cfa_offset 16
 392 0004 00AF     		add	r7, sp, #0
 393              	.LCFI21:
 394              		.cfi_def_cfa_register 7
 395 0006 0346     		mov	r3, r0
 396 0008 FB80     		strh	r3, [r7, #6]	@ movhi
 329:.\Generated_Source\PSoC5/Counter_7.c ****     #if(Counter_7_UsingFixedFunction)
 330:.\Generated_Source\PSoC5/Counter_7.c ****         /* assert if block is already enabled */
 331:.\Generated_Source\PSoC5/Counter_7.c ****         CYASSERT (0u == (Counter_7_GLOBAL_ENABLE & Counter_7_BLOCK_EN_MASK));
 332:.\Generated_Source\PSoC5/Counter_7.c ****         /* If block is disabled, enable it and then write the counter */
 333:.\Generated_Source\PSoC5/Counter_7.c ****         Counter_7_GLOBAL_ENABLE |= Counter_7_BLOCK_EN_MASK;
 334:.\Generated_Source\PSoC5/Counter_7.c ****         CY_SET_REG16(Counter_7_COUNTER_LSB_PTR, (uint16)counter);
 335:.\Generated_Source\PSoC5/Counter_7.c ****         Counter_7_GLOBAL_ENABLE &= ((uint8)(~Counter_7_BLOCK_EN_MASK));
 336:.\Generated_Source\PSoC5/Counter_7.c ****     #else
 337:.\Generated_Source\PSoC5/Counter_7.c ****         CY_SET_REG16(Counter_7_COUNTER_LSB_PTR, counter);
 397              		.loc 1 337 0
 398 000a 46F61023 		movw	r3, #27152
 399 000e C4F20003 		movt	r3, 16384
 400 0012 FA88     		ldrh	r2, [r7, #6]	@ movhi
 401 0014 1A80     		strh	r2, [r3, #0]	@ movhi
 338:.\Generated_Source\PSoC5/Counter_7.c ****     #endif /* (Counter_7_UsingFixedFunction) */
 339:.\Generated_Source\PSoC5/Counter_7.c **** }
 402              		.loc 1 339 0
ARM GAS  C:\Users\HANSSU~1\AppData\Local\Temp\cctzYOdj.s 			page 14


 403 0016 07F10C07 		add	r7, r7, #12
 404 001a BD46     		mov	sp, r7
 405 001c 80BC     		pop	{r7}
 406 001e 7047     		bx	lr
 407              		.cfi_endproc
 408              	.LFE8:
 409              		.size	Counter_7_WriteCounter, .-Counter_7_WriteCounter
 410              		.section	.text.Counter_7_ReadCounter,"ax",%progbits
 411              		.align	2
 412              		.global	Counter_7_ReadCounter
 413              		.thumb
 414              		.thumb_func
 415              		.type	Counter_7_ReadCounter, %function
 416              	Counter_7_ReadCounter:
 417              	.LFB9:
 340:.\Generated_Source\PSoC5/Counter_7.c **** #endif /* (!(Counter_7_UsingFixedFunction && (CY_PSOC5A))) */
 341:.\Generated_Source\PSoC5/Counter_7.c **** 
 342:.\Generated_Source\PSoC5/Counter_7.c **** 
 343:.\Generated_Source\PSoC5/Counter_7.c **** /*******************************************************************************
 344:.\Generated_Source\PSoC5/Counter_7.c **** * Function Name: Counter_7_ReadCounter
 345:.\Generated_Source\PSoC5/Counter_7.c **** ********************************************************************************
 346:.\Generated_Source\PSoC5/Counter_7.c **** * Summary:
 347:.\Generated_Source\PSoC5/Counter_7.c **** * Returns the current value of the counter.  It doesn't matter
 348:.\Generated_Source\PSoC5/Counter_7.c **** * if the counter is enabled or running.
 349:.\Generated_Source\PSoC5/Counter_7.c **** *
 350:.\Generated_Source\PSoC5/Counter_7.c **** * Parameters:  
 351:.\Generated_Source\PSoC5/Counter_7.c **** *  void:  
 352:.\Generated_Source\PSoC5/Counter_7.c **** *
 353:.\Generated_Source\PSoC5/Counter_7.c **** * Return: 
 354:.\Generated_Source\PSoC5/Counter_7.c **** *  (uint16) The present value of the counter.
 355:.\Generated_Source\PSoC5/Counter_7.c **** *
 356:.\Generated_Source\PSoC5/Counter_7.c **** *******************************************************************************/
 357:.\Generated_Source\PSoC5/Counter_7.c **** uint16 Counter_7_ReadCounter(void) 
 358:.\Generated_Source\PSoC5/Counter_7.c **** {
 418              		.loc 1 358 0
 419              		.cfi_startproc
 420              		@ args = 0, pretend = 0, frame = 0
 421              		@ frame_needed = 1, uses_anonymous_args = 0
 422              		@ link register save eliminated.
 423 0000 80B4     		push	{r7}
 424              	.LCFI22:
 425              		.cfi_def_cfa_offset 4
 426              		.cfi_offset 7, -4
 427 0002 00AF     		add	r7, sp, #0
 428              	.LCFI23:
 429              		.cfi_def_cfa_register 7
 359:.\Generated_Source\PSoC5/Counter_7.c ****     /* Force capture by reading Accumulator */
 360:.\Generated_Source\PSoC5/Counter_7.c ****     /* Must first do a software capture to be able to read the counter */
 361:.\Generated_Source\PSoC5/Counter_7.c ****     /* It is up to the user code to make sure there isn't already captured data in the FIFO */
 362:.\Generated_Source\PSoC5/Counter_7.c ****     #if(Counter_7_UsingFixedFunction)
 363:.\Generated_Source\PSoC5/Counter_7.c **** 		(void)CY_GET_REG16(Counter_7_COUNTER_LSB_PTR);
 364:.\Generated_Source\PSoC5/Counter_7.c **** 	#else
 365:.\Generated_Source\PSoC5/Counter_7.c **** 		(void)CY_GET_REG8(Counter_7_COUNTER_LSB_PTR_8BIT);
 430              		.loc 1 365 0
 431 0004 46F20853 		movw	r3, #25864
 432 0008 C4F20003 		movt	r3, 16384
 433 000c 1B78     		ldrb	r3, [r3, #0]
ARM GAS  C:\Users\HANSSU~1\AppData\Local\Temp\cctzYOdj.s 			page 15


 366:.\Generated_Source\PSoC5/Counter_7.c **** 	#endif/* (Counter_7_UsingFixedFunction) */
 367:.\Generated_Source\PSoC5/Counter_7.c ****     
 368:.\Generated_Source\PSoC5/Counter_7.c ****     /* Read the data from the FIFO (or capture register for Fixed Function)*/
 369:.\Generated_Source\PSoC5/Counter_7.c ****     #if(Counter_7_UsingFixedFunction)
 370:.\Generated_Source\PSoC5/Counter_7.c ****         return ((uint16)CY_GET_REG16(Counter_7_STATICCOUNT_LSB_PTR));
 371:.\Generated_Source\PSoC5/Counter_7.c ****     #else
 372:.\Generated_Source\PSoC5/Counter_7.c ****         return (CY_GET_REG16(Counter_7_STATICCOUNT_LSB_PTR));
 434              		.loc 1 372 0
 435 000e 46F69023 		movw	r3, #27280
 436 0012 C4F20003 		movt	r3, 16384
 437 0016 1B88     		ldrh	r3, [r3, #0]	@ movhi
 438 0018 9BB2     		uxth	r3, r3
 373:.\Generated_Source\PSoC5/Counter_7.c ****     #endif /* (Counter_7_UsingFixedFunction) */
 374:.\Generated_Source\PSoC5/Counter_7.c **** }
 439              		.loc 1 374 0
 440 001a 1846     		mov	r0, r3
 441 001c BD46     		mov	sp, r7
 442 001e 80BC     		pop	{r7}
 443 0020 7047     		bx	lr
 444              		.cfi_endproc
 445              	.LFE9:
 446              		.size	Counter_7_ReadCounter, .-Counter_7_ReadCounter
 447 0022 00BF     		.section	.text.Counter_7_ReadCapture,"ax",%progbits
 448              		.align	2
 449              		.global	Counter_7_ReadCapture
 450              		.thumb
 451              		.thumb_func
 452              		.type	Counter_7_ReadCapture, %function
 453              	Counter_7_ReadCapture:
 454              	.LFB10:
 375:.\Generated_Source\PSoC5/Counter_7.c **** 
 376:.\Generated_Source\PSoC5/Counter_7.c **** 
 377:.\Generated_Source\PSoC5/Counter_7.c **** /*******************************************************************************
 378:.\Generated_Source\PSoC5/Counter_7.c **** * Function Name: Counter_7_ReadCapture
 379:.\Generated_Source\PSoC5/Counter_7.c **** ********************************************************************************
 380:.\Generated_Source\PSoC5/Counter_7.c **** * Summary:
 381:.\Generated_Source\PSoC5/Counter_7.c **** *   This function returns the last value captured.
 382:.\Generated_Source\PSoC5/Counter_7.c **** *
 383:.\Generated_Source\PSoC5/Counter_7.c **** * Parameters:  
 384:.\Generated_Source\PSoC5/Counter_7.c **** *  void
 385:.\Generated_Source\PSoC5/Counter_7.c **** *
 386:.\Generated_Source\PSoC5/Counter_7.c **** * Return: 
 387:.\Generated_Source\PSoC5/Counter_7.c **** *  (uint16) Present Capture value.
 388:.\Generated_Source\PSoC5/Counter_7.c **** *
 389:.\Generated_Source\PSoC5/Counter_7.c **** *******************************************************************************/
 390:.\Generated_Source\PSoC5/Counter_7.c **** uint16 Counter_7_ReadCapture(void) 
 391:.\Generated_Source\PSoC5/Counter_7.c **** {
 455              		.loc 1 391 0
 456              		.cfi_startproc
 457              		@ args = 0, pretend = 0, frame = 0
 458              		@ frame_needed = 1, uses_anonymous_args = 0
 459              		@ link register save eliminated.
 460 0000 80B4     		push	{r7}
 461              	.LCFI24:
 462              		.cfi_def_cfa_offset 4
 463              		.cfi_offset 7, -4
 464 0002 00AF     		add	r7, sp, #0
ARM GAS  C:\Users\HANSSU~1\AppData\Local\Temp\cctzYOdj.s 			page 16


 465              	.LCFI25:
 466              		.cfi_def_cfa_register 7
 392:.\Generated_Source\PSoC5/Counter_7.c ****     #if(Counter_7_UsingFixedFunction)
 393:.\Generated_Source\PSoC5/Counter_7.c ****         return ((uint16)CY_GET_REG16(Counter_7_STATICCOUNT_LSB_PTR));
 394:.\Generated_Source\PSoC5/Counter_7.c ****     #else
 395:.\Generated_Source\PSoC5/Counter_7.c ****         return (CY_GET_REG16(Counter_7_STATICCOUNT_LSB_PTR));
 467              		.loc 1 395 0
 468 0004 46F69023 		movw	r3, #27280
 469 0008 C4F20003 		movt	r3, 16384
 470 000c 1B88     		ldrh	r3, [r3, #0]	@ movhi
 471 000e 9BB2     		uxth	r3, r3
 396:.\Generated_Source\PSoC5/Counter_7.c ****     #endif /* (Counter_7_UsingFixedFunction) */
 397:.\Generated_Source\PSoC5/Counter_7.c **** }
 472              		.loc 1 397 0
 473 0010 1846     		mov	r0, r3
 474 0012 BD46     		mov	sp, r7
 475 0014 80BC     		pop	{r7}
 476 0016 7047     		bx	lr
 477              		.cfi_endproc
 478              	.LFE10:
 479              		.size	Counter_7_ReadCapture, .-Counter_7_ReadCapture
 480              		.section	.text.Counter_7_WritePeriod,"ax",%progbits
 481              		.align	2
 482              		.global	Counter_7_WritePeriod
 483              		.thumb
 484              		.thumb_func
 485              		.type	Counter_7_WritePeriod, %function
 486              	Counter_7_WritePeriod:
 487              	.LFB11:
 398:.\Generated_Source\PSoC5/Counter_7.c **** 
 399:.\Generated_Source\PSoC5/Counter_7.c **** 
 400:.\Generated_Source\PSoC5/Counter_7.c **** /*******************************************************************************
 401:.\Generated_Source\PSoC5/Counter_7.c **** * Function Name: Counter_7_WritePeriod
 402:.\Generated_Source\PSoC5/Counter_7.c **** ********************************************************************************
 403:.\Generated_Source\PSoC5/Counter_7.c **** * Summary:
 404:.\Generated_Source\PSoC5/Counter_7.c **** * Changes the period of the counter.  The new period 
 405:.\Generated_Source\PSoC5/Counter_7.c **** * will be loaded the next time terminal count is detected.
 406:.\Generated_Source\PSoC5/Counter_7.c **** *
 407:.\Generated_Source\PSoC5/Counter_7.c **** * Parameters:  
 408:.\Generated_Source\PSoC5/Counter_7.c **** *  period: (uint16) A value of 0 will result in
 409:.\Generated_Source\PSoC5/Counter_7.c **** *         the counter remaining at zero.  
 410:.\Generated_Source\PSoC5/Counter_7.c **** *
 411:.\Generated_Source\PSoC5/Counter_7.c **** * Return: 
 412:.\Generated_Source\PSoC5/Counter_7.c **** *  void
 413:.\Generated_Source\PSoC5/Counter_7.c **** *
 414:.\Generated_Source\PSoC5/Counter_7.c **** *******************************************************************************/
 415:.\Generated_Source\PSoC5/Counter_7.c **** void Counter_7_WritePeriod(uint16 period) 
 416:.\Generated_Source\PSoC5/Counter_7.c **** {
 488              		.loc 1 416 0
 489              		.cfi_startproc
 490              		@ args = 0, pretend = 0, frame = 8
 491              		@ frame_needed = 1, uses_anonymous_args = 0
 492              		@ link register save eliminated.
 493 0000 80B4     		push	{r7}
 494              	.LCFI26:
 495              		.cfi_def_cfa_offset 4
 496              		.cfi_offset 7, -4
ARM GAS  C:\Users\HANSSU~1\AppData\Local\Temp\cctzYOdj.s 			page 17


 497 0002 83B0     		sub	sp, sp, #12
 498              	.LCFI27:
 499              		.cfi_def_cfa_offset 16
 500 0004 00AF     		add	r7, sp, #0
 501              	.LCFI28:
 502              		.cfi_def_cfa_register 7
 503 0006 0346     		mov	r3, r0
 504 0008 FB80     		strh	r3, [r7, #6]	@ movhi
 417:.\Generated_Source\PSoC5/Counter_7.c ****     #if(Counter_7_UsingFixedFunction)
 418:.\Generated_Source\PSoC5/Counter_7.c ****         CY_SET_REG16(Counter_7_PERIOD_LSB_PTR,(uint16)period);
 419:.\Generated_Source\PSoC5/Counter_7.c ****     #else
 420:.\Generated_Source\PSoC5/Counter_7.c ****         CY_SET_REG16(Counter_7_PERIOD_LSB_PTR, period);
 505              		.loc 1 420 0
 506 000a 46F65023 		movw	r3, #27216
 507 000e C4F20003 		movt	r3, 16384
 508 0012 FA88     		ldrh	r2, [r7, #6]	@ movhi
 509 0014 1A80     		strh	r2, [r3, #0]	@ movhi
 421:.\Generated_Source\PSoC5/Counter_7.c ****     #endif /* (Counter_7_UsingFixedFunction) */
 422:.\Generated_Source\PSoC5/Counter_7.c **** }
 510              		.loc 1 422 0
 511 0016 07F10C07 		add	r7, r7, #12
 512 001a BD46     		mov	sp, r7
 513 001c 80BC     		pop	{r7}
 514 001e 7047     		bx	lr
 515              		.cfi_endproc
 516              	.LFE11:
 517              		.size	Counter_7_WritePeriod, .-Counter_7_WritePeriod
 518              		.section	.text.Counter_7_ReadPeriod,"ax",%progbits
 519              		.align	2
 520              		.global	Counter_7_ReadPeriod
 521              		.thumb
 522              		.thumb_func
 523              		.type	Counter_7_ReadPeriod, %function
 524              	Counter_7_ReadPeriod:
 525              	.LFB12:
 423:.\Generated_Source\PSoC5/Counter_7.c **** 
 424:.\Generated_Source\PSoC5/Counter_7.c **** 
 425:.\Generated_Source\PSoC5/Counter_7.c **** /*******************************************************************************
 426:.\Generated_Source\PSoC5/Counter_7.c **** * Function Name: Counter_7_ReadPeriod
 427:.\Generated_Source\PSoC5/Counter_7.c **** ********************************************************************************
 428:.\Generated_Source\PSoC5/Counter_7.c **** * Summary:
 429:.\Generated_Source\PSoC5/Counter_7.c **** * Reads the current period value without affecting counter operation.
 430:.\Generated_Source\PSoC5/Counter_7.c **** *
 431:.\Generated_Source\PSoC5/Counter_7.c **** * Parameters:  
 432:.\Generated_Source\PSoC5/Counter_7.c **** *  void:  
 433:.\Generated_Source\PSoC5/Counter_7.c **** *
 434:.\Generated_Source\PSoC5/Counter_7.c **** * Return: 
 435:.\Generated_Source\PSoC5/Counter_7.c **** *  (uint16) Present period value.
 436:.\Generated_Source\PSoC5/Counter_7.c **** *
 437:.\Generated_Source\PSoC5/Counter_7.c **** *******************************************************************************/
 438:.\Generated_Source\PSoC5/Counter_7.c **** uint16 Counter_7_ReadPeriod(void) 
 439:.\Generated_Source\PSoC5/Counter_7.c **** {
 526              		.loc 1 439 0
 527              		.cfi_startproc
 528              		@ args = 0, pretend = 0, frame = 0
 529              		@ frame_needed = 1, uses_anonymous_args = 0
 530              		@ link register save eliminated.
ARM GAS  C:\Users\HANSSU~1\AppData\Local\Temp\cctzYOdj.s 			page 18


 531 0000 80B4     		push	{r7}
 532              	.LCFI29:
 533              		.cfi_def_cfa_offset 4
 534              		.cfi_offset 7, -4
 535 0002 00AF     		add	r7, sp, #0
 536              	.LCFI30:
 537              		.cfi_def_cfa_register 7
 440:.\Generated_Source\PSoC5/Counter_7.c ****     #if(Counter_7_UsingFixedFunction)
 441:.\Generated_Source\PSoC5/Counter_7.c ****         return ((uint16)CY_GET_REG16(Counter_7_PERIOD_LSB_PTR));
 442:.\Generated_Source\PSoC5/Counter_7.c ****     #else
 443:.\Generated_Source\PSoC5/Counter_7.c ****         return (CY_GET_REG16(Counter_7_PERIOD_LSB_PTR));
 538              		.loc 1 443 0
 539 0004 46F65023 		movw	r3, #27216
 540 0008 C4F20003 		movt	r3, 16384
 541 000c 1B88     		ldrh	r3, [r3, #0]	@ movhi
 542 000e 9BB2     		uxth	r3, r3
 444:.\Generated_Source\PSoC5/Counter_7.c ****     #endif /* (Counter_7_UsingFixedFunction) */
 445:.\Generated_Source\PSoC5/Counter_7.c **** }
 543              		.loc 1 445 0
 544 0010 1846     		mov	r0, r3
 545 0012 BD46     		mov	sp, r7
 546 0014 80BC     		pop	{r7}
 547 0016 7047     		bx	lr
 548              		.cfi_endproc
 549              	.LFE12:
 550              		.size	Counter_7_ReadPeriod, .-Counter_7_ReadPeriod
 551              		.section	.text.Counter_7_WriteCompare,"ax",%progbits
 552              		.align	2
 553              		.global	Counter_7_WriteCompare
 554              		.thumb
 555              		.thumb_func
 556              		.type	Counter_7_WriteCompare, %function
 557              	Counter_7_WriteCompare:
 558              	.LFB13:
 446:.\Generated_Source\PSoC5/Counter_7.c **** 
 447:.\Generated_Source\PSoC5/Counter_7.c **** 
 448:.\Generated_Source\PSoC5/Counter_7.c **** #if (!Counter_7_UsingFixedFunction)
 449:.\Generated_Source\PSoC5/Counter_7.c **** /*******************************************************************************
 450:.\Generated_Source\PSoC5/Counter_7.c **** * Function Name: Counter_7_WriteCompare
 451:.\Generated_Source\PSoC5/Counter_7.c **** ********************************************************************************
 452:.\Generated_Source\PSoC5/Counter_7.c **** * Summary:
 453:.\Generated_Source\PSoC5/Counter_7.c **** * Changes the compare value.  The compare output will 
 454:.\Generated_Source\PSoC5/Counter_7.c **** * reflect the new value on the next UDB clock.  The compare output will be 
 455:.\Generated_Source\PSoC5/Counter_7.c **** * driven high when the present counter value compares true based on the 
 456:.\Generated_Source\PSoC5/Counter_7.c **** * configured compare mode setting. 
 457:.\Generated_Source\PSoC5/Counter_7.c **** *
 458:.\Generated_Source\PSoC5/Counter_7.c **** * Parameters:  
 459:.\Generated_Source\PSoC5/Counter_7.c **** *  Compare:  New compare value. 
 460:.\Generated_Source\PSoC5/Counter_7.c **** *
 461:.\Generated_Source\PSoC5/Counter_7.c **** * Return: 
 462:.\Generated_Source\PSoC5/Counter_7.c **** *  void
 463:.\Generated_Source\PSoC5/Counter_7.c **** *
 464:.\Generated_Source\PSoC5/Counter_7.c **** *******************************************************************************/
 465:.\Generated_Source\PSoC5/Counter_7.c **** void Counter_7_WriteCompare(uint16 compare) \
 466:.\Generated_Source\PSoC5/Counter_7.c ****                                    
 467:.\Generated_Source\PSoC5/Counter_7.c **** {
 559              		.loc 1 467 0
ARM GAS  C:\Users\HANSSU~1\AppData\Local\Temp\cctzYOdj.s 			page 19


 560              		.cfi_startproc
 561              		@ args = 0, pretend = 0, frame = 8
 562              		@ frame_needed = 1, uses_anonymous_args = 0
 563              		@ link register save eliminated.
 564 0000 80B4     		push	{r7}
 565              	.LCFI31:
 566              		.cfi_def_cfa_offset 4
 567              		.cfi_offset 7, -4
 568 0002 83B0     		sub	sp, sp, #12
 569              	.LCFI32:
 570              		.cfi_def_cfa_offset 16
 571 0004 00AF     		add	r7, sp, #0
 572              	.LCFI33:
 573              		.cfi_def_cfa_register 7
 574 0006 0346     		mov	r3, r0
 575 0008 FB80     		strh	r3, [r7, #6]	@ movhi
 468:.\Generated_Source\PSoC5/Counter_7.c ****     #if(Counter_7_UsingFixedFunction)
 469:.\Generated_Source\PSoC5/Counter_7.c ****         CY_SET_REG16(Counter_7_COMPARE_LSB_PTR, (uint16)compare);
 470:.\Generated_Source\PSoC5/Counter_7.c ****     #else
 471:.\Generated_Source\PSoC5/Counter_7.c ****         CY_SET_REG16(Counter_7_COMPARE_LSB_PTR, compare);
 576              		.loc 1 471 0
 577 000a 46F67023 		movw	r3, #27248
 578 000e C4F20003 		movt	r3, 16384
 579 0012 FA88     		ldrh	r2, [r7, #6]	@ movhi
 580 0014 1A80     		strh	r2, [r3, #0]	@ movhi
 472:.\Generated_Source\PSoC5/Counter_7.c ****     #endif /* (Counter_7_UsingFixedFunction) */
 473:.\Generated_Source\PSoC5/Counter_7.c **** }
 581              		.loc 1 473 0
 582 0016 07F10C07 		add	r7, r7, #12
 583 001a BD46     		mov	sp, r7
 584 001c 80BC     		pop	{r7}
 585 001e 7047     		bx	lr
 586              		.cfi_endproc
 587              	.LFE13:
 588              		.size	Counter_7_WriteCompare, .-Counter_7_WriteCompare
 589              		.section	.text.Counter_7_ReadCompare,"ax",%progbits
 590              		.align	2
 591              		.global	Counter_7_ReadCompare
 592              		.thumb
 593              		.thumb_func
 594              		.type	Counter_7_ReadCompare, %function
 595              	Counter_7_ReadCompare:
 596              	.LFB14:
 474:.\Generated_Source\PSoC5/Counter_7.c **** 
 475:.\Generated_Source\PSoC5/Counter_7.c **** 
 476:.\Generated_Source\PSoC5/Counter_7.c **** /*******************************************************************************
 477:.\Generated_Source\PSoC5/Counter_7.c **** * Function Name: Counter_7_ReadCompare
 478:.\Generated_Source\PSoC5/Counter_7.c **** ********************************************************************************
 479:.\Generated_Source\PSoC5/Counter_7.c **** * Summary:
 480:.\Generated_Source\PSoC5/Counter_7.c **** * Returns the compare value.
 481:.\Generated_Source\PSoC5/Counter_7.c **** *
 482:.\Generated_Source\PSoC5/Counter_7.c **** * Parameters:  
 483:.\Generated_Source\PSoC5/Counter_7.c **** *  void:
 484:.\Generated_Source\PSoC5/Counter_7.c **** *
 485:.\Generated_Source\PSoC5/Counter_7.c **** * Return: 
 486:.\Generated_Source\PSoC5/Counter_7.c **** *  (uint16) Present compare value.
 487:.\Generated_Source\PSoC5/Counter_7.c **** *
ARM GAS  C:\Users\HANSSU~1\AppData\Local\Temp\cctzYOdj.s 			page 20


 488:.\Generated_Source\PSoC5/Counter_7.c **** *******************************************************************************/
 489:.\Generated_Source\PSoC5/Counter_7.c **** uint16 Counter_7_ReadCompare(void) 
 490:.\Generated_Source\PSoC5/Counter_7.c **** {
 597              		.loc 1 490 0
 598              		.cfi_startproc
 599              		@ args = 0, pretend = 0, frame = 0
 600              		@ frame_needed = 1, uses_anonymous_args = 0
 601              		@ link register save eliminated.
 602 0000 80B4     		push	{r7}
 603              	.LCFI34:
 604              		.cfi_def_cfa_offset 4
 605              		.cfi_offset 7, -4
 606 0002 00AF     		add	r7, sp, #0
 607              	.LCFI35:
 608              		.cfi_def_cfa_register 7
 491:.\Generated_Source\PSoC5/Counter_7.c ****     return (CY_GET_REG16(Counter_7_COMPARE_LSB_PTR));
 609              		.loc 1 491 0
 610 0004 46F67023 		movw	r3, #27248
 611 0008 C4F20003 		movt	r3, 16384
 612 000c 1B88     		ldrh	r3, [r3, #0]	@ movhi
 613 000e 9BB2     		uxth	r3, r3
 492:.\Generated_Source\PSoC5/Counter_7.c **** }
 614              		.loc 1 492 0
 615 0010 1846     		mov	r0, r3
 616 0012 BD46     		mov	sp, r7
 617 0014 80BC     		pop	{r7}
 618 0016 7047     		bx	lr
 619              		.cfi_endproc
 620              	.LFE14:
 621              		.size	Counter_7_ReadCompare, .-Counter_7_ReadCompare
 622              		.section	.text.Counter_7_ClearFIFO,"ax",%progbits
 623              		.align	2
 624              		.global	Counter_7_ClearFIFO
 625              		.thumb
 626              		.thumb_func
 627              		.type	Counter_7_ClearFIFO, %function
 628              	Counter_7_ClearFIFO:
 629              	.LFB15:
 493:.\Generated_Source\PSoC5/Counter_7.c **** 
 494:.\Generated_Source\PSoC5/Counter_7.c **** 
 495:.\Generated_Source\PSoC5/Counter_7.c **** #if (Counter_7_COMPARE_MODE_SOFTWARE)
 496:.\Generated_Source\PSoC5/Counter_7.c **** /*******************************************************************************
 497:.\Generated_Source\PSoC5/Counter_7.c **** * Function Name: Counter_7_SetCompareMode
 498:.\Generated_Source\PSoC5/Counter_7.c **** ********************************************************************************
 499:.\Generated_Source\PSoC5/Counter_7.c **** * Summary:
 500:.\Generated_Source\PSoC5/Counter_7.c **** *  Sets the software controlled Compare Mode.
 501:.\Generated_Source\PSoC5/Counter_7.c **** *
 502:.\Generated_Source\PSoC5/Counter_7.c **** * Parameters:
 503:.\Generated_Source\PSoC5/Counter_7.c **** *  compareMode:  Compare Mode Enumerated Type.
 504:.\Generated_Source\PSoC5/Counter_7.c **** *
 505:.\Generated_Source\PSoC5/Counter_7.c **** * Return:
 506:.\Generated_Source\PSoC5/Counter_7.c **** *  void
 507:.\Generated_Source\PSoC5/Counter_7.c **** *
 508:.\Generated_Source\PSoC5/Counter_7.c **** *******************************************************************************/
 509:.\Generated_Source\PSoC5/Counter_7.c **** void Counter_7_SetCompareMode(uint8 compareMode) 
 510:.\Generated_Source\PSoC5/Counter_7.c **** {
 511:.\Generated_Source\PSoC5/Counter_7.c ****     /* Clear the compare mode bits in the control register */
ARM GAS  C:\Users\HANSSU~1\AppData\Local\Temp\cctzYOdj.s 			page 21


 512:.\Generated_Source\PSoC5/Counter_7.c ****     Counter_7_CONTROL &= ((uint8)(~Counter_7_CTRL_CMPMODE_MASK));
 513:.\Generated_Source\PSoC5/Counter_7.c ****     
 514:.\Generated_Source\PSoC5/Counter_7.c ****     /* Write the new setting */
 515:.\Generated_Source\PSoC5/Counter_7.c ****     Counter_7_CONTROL |= compareMode;
 516:.\Generated_Source\PSoC5/Counter_7.c **** }
 517:.\Generated_Source\PSoC5/Counter_7.c **** #endif  /* (Counter_7_COMPARE_MODE_SOFTWARE) */
 518:.\Generated_Source\PSoC5/Counter_7.c **** 
 519:.\Generated_Source\PSoC5/Counter_7.c **** 
 520:.\Generated_Source\PSoC5/Counter_7.c **** #if (Counter_7_CAPTURE_MODE_SOFTWARE)
 521:.\Generated_Source\PSoC5/Counter_7.c **** /*******************************************************************************
 522:.\Generated_Source\PSoC5/Counter_7.c **** * Function Name: Counter_7_SetCaptureMode
 523:.\Generated_Source\PSoC5/Counter_7.c **** ********************************************************************************
 524:.\Generated_Source\PSoC5/Counter_7.c **** * Summary:
 525:.\Generated_Source\PSoC5/Counter_7.c **** *  Sets the software controlled Capture Mode.
 526:.\Generated_Source\PSoC5/Counter_7.c **** *
 527:.\Generated_Source\PSoC5/Counter_7.c **** * Parameters:
 528:.\Generated_Source\PSoC5/Counter_7.c **** *  captureMode:  Capture Mode Enumerated Type.
 529:.\Generated_Source\PSoC5/Counter_7.c **** *
 530:.\Generated_Source\PSoC5/Counter_7.c **** * Return:
 531:.\Generated_Source\PSoC5/Counter_7.c **** *  void
 532:.\Generated_Source\PSoC5/Counter_7.c **** *
 533:.\Generated_Source\PSoC5/Counter_7.c **** *******************************************************************************/
 534:.\Generated_Source\PSoC5/Counter_7.c **** void Counter_7_SetCaptureMode(uint8 captureMode) 
 535:.\Generated_Source\PSoC5/Counter_7.c **** {
 536:.\Generated_Source\PSoC5/Counter_7.c ****     /* Clear the capture mode bits in the control register */
 537:.\Generated_Source\PSoC5/Counter_7.c ****     Counter_7_CONTROL &= ((uint8)(~Counter_7_CTRL_CAPMODE_MASK));
 538:.\Generated_Source\PSoC5/Counter_7.c ****     
 539:.\Generated_Source\PSoC5/Counter_7.c ****     /* Write the new setting */
 540:.\Generated_Source\PSoC5/Counter_7.c ****     Counter_7_CONTROL |= ((uint8)((uint8)captureMode << Counter_7_CTRL_CAPMODE0_SHIFT));
 541:.\Generated_Source\PSoC5/Counter_7.c **** }
 542:.\Generated_Source\PSoC5/Counter_7.c **** #endif  /* (Counter_7_CAPTURE_MODE_SOFTWARE) */
 543:.\Generated_Source\PSoC5/Counter_7.c **** 
 544:.\Generated_Source\PSoC5/Counter_7.c **** 
 545:.\Generated_Source\PSoC5/Counter_7.c **** /*******************************************************************************
 546:.\Generated_Source\PSoC5/Counter_7.c **** * Function Name: Counter_7_ClearFIFO
 547:.\Generated_Source\PSoC5/Counter_7.c **** ********************************************************************************
 548:.\Generated_Source\PSoC5/Counter_7.c **** * Summary:
 549:.\Generated_Source\PSoC5/Counter_7.c **** *   This function clears all capture data from the capture FIFO
 550:.\Generated_Source\PSoC5/Counter_7.c **** *
 551:.\Generated_Source\PSoC5/Counter_7.c **** * Parameters:  
 552:.\Generated_Source\PSoC5/Counter_7.c **** *  void:
 553:.\Generated_Source\PSoC5/Counter_7.c **** *
 554:.\Generated_Source\PSoC5/Counter_7.c **** * Return: 
 555:.\Generated_Source\PSoC5/Counter_7.c **** *  None
 556:.\Generated_Source\PSoC5/Counter_7.c **** *
 557:.\Generated_Source\PSoC5/Counter_7.c **** *******************************************************************************/
 558:.\Generated_Source\PSoC5/Counter_7.c **** void Counter_7_ClearFIFO(void) 
 559:.\Generated_Source\PSoC5/Counter_7.c **** {
 630              		.loc 1 559 0
 631              		.cfi_startproc
 632              		@ args = 0, pretend = 0, frame = 0
 633              		@ frame_needed = 1, uses_anonymous_args = 0
 634 0000 80B5     		push	{r7, lr}
 635              	.LCFI36:
 636              		.cfi_def_cfa_offset 8
 637              		.cfi_offset 7, -8
 638              		.cfi_offset 14, -4
ARM GAS  C:\Users\HANSSU~1\AppData\Local\Temp\cctzYOdj.s 			page 22


 639 0002 00AF     		add	r7, sp, #0
 640              	.LCFI37:
 641              		.cfi_def_cfa_register 7
 560:.\Generated_Source\PSoC5/Counter_7.c **** 
 561:.\Generated_Source\PSoC5/Counter_7.c ****     while(0u != (Counter_7_ReadStatusRegister() & Counter_7_STATUS_FIFONEMP))
 642              		.loc 1 561 0
 643 0004 01E0     		b	.L24
 644              	.L25:
 562:.\Generated_Source\PSoC5/Counter_7.c ****     {
 563:.\Generated_Source\PSoC5/Counter_7.c ****         (void)Counter_7_ReadCapture();
 645              		.loc 1 563 0
 646 0006 FFF7FEFF 		bl	Counter_7_ReadCapture
 647              	.L24:
 561:.\Generated_Source\PSoC5/Counter_7.c ****     while(0u != (Counter_7_ReadStatusRegister() & Counter_7_STATUS_FIFONEMP))
 648              		.loc 1 561 0 discriminator 1
 649 000a FFF7FEFF 		bl	Counter_7_ReadStatusRegister
 650 000e 0346     		mov	r3, r0
 651 0010 03F04003 		and	r3, r3, #64
 652 0014 002B     		cmp	r3, #0
 653 0016 F6D1     		bne	.L25
 564:.\Generated_Source\PSoC5/Counter_7.c ****     }
 565:.\Generated_Source\PSoC5/Counter_7.c **** 
 566:.\Generated_Source\PSoC5/Counter_7.c **** }
 654              		.loc 1 566 0
 655 0018 80BD     		pop	{r7, pc}
 656              		.cfi_endproc
 657              	.LFE15:
 658              		.size	Counter_7_ClearFIFO, .-Counter_7_ClearFIFO
 659 001a 00BF     		.text
 660              	.Letext0:
 661              		.file 2 ".\\Generated_Source\\PSoC5\\cytypes.h"