ARM GAS  C:\Users\BIOMIM~1\AppData\Local\Temp\cc2zDI83.s 			page 1


   1              		.syntax unified
   2              		.cpu cortex-m3
   3              		.fpu softvfp
   4              		.eabi_attribute 20, 1
   5              		.eabi_attribute 21, 1
   6              		.eabi_attribute 23, 3
   7              		.eabi_attribute 24, 1
   8              		.eabi_attribute 25, 1
   9              		.eabi_attribute 26, 1
  10              		.eabi_attribute 30, 6
  11              		.eabi_attribute 34, 1
  12              		.eabi_attribute 18, 4
  13              		.thumb
  14              		.file	"QuadDec_4_PM.c"
  15              		.text
  16              	.Ltext0:
  17              		.cfi_sections	.debug_frame
  18              		.bss
  19              		.align	2
  20              	QuadDec_4_backup:
  21 0000 00       		.space	1
  22 0001 000000   		.section	.text.QuadDec_4_SaveConfig,"ax",%progbits
  23              		.align	2
  24              		.global	QuadDec_4_SaveConfig
  25              		.thumb
  26              		.thumb_func
  27              		.type	QuadDec_4_SaveConfig, %function
  28              	QuadDec_4_SaveConfig:
  29              	.LFB0:
  30              		.file 1 ".\\Generated_Source\\PSoC5\\QuadDec_4_PM.c"
   1:.\Generated_Source\PSoC5/QuadDec_4_PM.c **** /*******************************************************************************
   2:.\Generated_Source\PSoC5/QuadDec_4_PM.c **** * File Name: QuadDec_4_PM.c
   3:.\Generated_Source\PSoC5/QuadDec_4_PM.c **** * Version 2.30
   4:.\Generated_Source\PSoC5/QuadDec_4_PM.c **** *
   5:.\Generated_Source\PSoC5/QuadDec_4_PM.c **** * Description:
   6:.\Generated_Source\PSoC5/QuadDec_4_PM.c **** *  This file contains the setup, control and status commands to support 
   7:.\Generated_Source\PSoC5/QuadDec_4_PM.c **** *  component operations in low power mode.  
   8:.\Generated_Source\PSoC5/QuadDec_4_PM.c **** *
   9:.\Generated_Source\PSoC5/QuadDec_4_PM.c **** * Note:
  10:.\Generated_Source\PSoC5/QuadDec_4_PM.c **** *  None.
  11:.\Generated_Source\PSoC5/QuadDec_4_PM.c **** *
  12:.\Generated_Source\PSoC5/QuadDec_4_PM.c **** ********************************************************************************
  13:.\Generated_Source\PSoC5/QuadDec_4_PM.c **** * Copyright 2008-2012, Cypress Semiconductor Corporation.  All rights reserved.
  14:.\Generated_Source\PSoC5/QuadDec_4_PM.c **** * You may use this file only in accordance with the license, terms, conditions,
  15:.\Generated_Source\PSoC5/QuadDec_4_PM.c **** * disclaimers, and limitations in the end user license agreement accompanying
  16:.\Generated_Source\PSoC5/QuadDec_4_PM.c **** * the software package with which this file was provided.
  17:.\Generated_Source\PSoC5/QuadDec_4_PM.c **** *******************************************************************************/
  18:.\Generated_Source\PSoC5/QuadDec_4_PM.c **** 
  19:.\Generated_Source\PSoC5/QuadDec_4_PM.c **** #include "QuadDec_4.h"
  20:.\Generated_Source\PSoC5/QuadDec_4_PM.c **** 
  21:.\Generated_Source\PSoC5/QuadDec_4_PM.c **** static QuadDec_4_BACKUP_STRUCT QuadDec_4_backup = {0u};
  22:.\Generated_Source\PSoC5/QuadDec_4_PM.c **** 
  23:.\Generated_Source\PSoC5/QuadDec_4_PM.c **** 
  24:.\Generated_Source\PSoC5/QuadDec_4_PM.c **** /*******************************************************************************
  25:.\Generated_Source\PSoC5/QuadDec_4_PM.c **** * Function Name: QuadDec_4_SaveConfig
  26:.\Generated_Source\PSoC5/QuadDec_4_PM.c **** ********************************************************************************
  27:.\Generated_Source\PSoC5/QuadDec_4_PM.c **** * Summary:
ARM GAS  C:\Users\BIOMIM~1\AppData\Local\Temp\cc2zDI83.s 			page 2


  28:.\Generated_Source\PSoC5/QuadDec_4_PM.c **** *  Saves the current user configuration of the component.
  29:.\Generated_Source\PSoC5/QuadDec_4_PM.c **** *
  30:.\Generated_Source\PSoC5/QuadDec_4_PM.c **** * Parameters:
  31:.\Generated_Source\PSoC5/QuadDec_4_PM.c **** *  None.
  32:.\Generated_Source\PSoC5/QuadDec_4_PM.c **** *
  33:.\Generated_Source\PSoC5/QuadDec_4_PM.c **** * Return:
  34:.\Generated_Source\PSoC5/QuadDec_4_PM.c **** *  None.
  35:.\Generated_Source\PSoC5/QuadDec_4_PM.c **** *
  36:.\Generated_Source\PSoC5/QuadDec_4_PM.c **** *******************************************************************************/
  37:.\Generated_Source\PSoC5/QuadDec_4_PM.c **** void QuadDec_4_SaveConfig(void) 
  38:.\Generated_Source\PSoC5/QuadDec_4_PM.c **** {
  31              		.loc 1 38 0
  32              		.cfi_startproc
  33              		@ args = 0, pretend = 0, frame = 0
  34              		@ frame_needed = 1, uses_anonymous_args = 0
  35 0000 80B5     		push	{r7, lr}
  36              	.LCFI0:
  37              		.cfi_def_cfa_offset 8
  38              		.cfi_offset 7, -8
  39              		.cfi_offset 14, -4
  40 0002 00AF     		add	r7, sp, #0
  41              	.LCFI1:
  42              		.cfi_def_cfa_register 7
  39:.\Generated_Source\PSoC5/QuadDec_4_PM.c ****     #if (QuadDec_4_COUNTER_SIZE == QuadDec_4_COUNTER_SIZE_8_BIT)
  40:.\Generated_Source\PSoC5/QuadDec_4_PM.c ****         QuadDec_4_Cnt8_SaveConfig();
  41:.\Generated_Source\PSoC5/QuadDec_4_PM.c ****     #else 
  42:.\Generated_Source\PSoC5/QuadDec_4_PM.c ****         /* (QuadDec_4_COUNTER_SIZE == QuadDec_4_COUNTER_SIZE_16_BIT) || 
  43:.\Generated_Source\PSoC5/QuadDec_4_PM.c ****          * (QuadDec_4_COUNTER_SIZE == QuadDec_4_COUNTER_SIZE_32_BIT)
  44:.\Generated_Source\PSoC5/QuadDec_4_PM.c ****          */
  45:.\Generated_Source\PSoC5/QuadDec_4_PM.c ****         QuadDec_4_Cnt16_SaveConfig();
  43              		.loc 1 45 0
  44 0004 FFF7FEFF 		bl	QuadDec_4_Cnt16_SaveConfig
  46:.\Generated_Source\PSoC5/QuadDec_4_PM.c ****     #endif /* (QuadDec_4_COUNTER_SIZE == QuadDec_4_COUNTER_SIZE_8_BIT) */
  47:.\Generated_Source\PSoC5/QuadDec_4_PM.c **** }
  45              		.loc 1 47 0
  46 0008 80BD     		pop	{r7, pc}
  47              		.cfi_endproc
  48              	.LFE0:
  49              		.size	QuadDec_4_SaveConfig, .-QuadDec_4_SaveConfig
  50 000a 00BF     		.section	.text.QuadDec_4_RestoreConfig,"ax",%progbits
  51              		.align	2
  52              		.global	QuadDec_4_RestoreConfig
  53              		.thumb
  54              		.thumb_func
  55              		.type	QuadDec_4_RestoreConfig, %function
  56              	QuadDec_4_RestoreConfig:
  57              	.LFB1:
  48:.\Generated_Source\PSoC5/QuadDec_4_PM.c **** 
  49:.\Generated_Source\PSoC5/QuadDec_4_PM.c **** 
  50:.\Generated_Source\PSoC5/QuadDec_4_PM.c **** /*******************************************************************************
  51:.\Generated_Source\PSoC5/QuadDec_4_PM.c **** * Function Name: QuadDec_4_RestoreConfig
  52:.\Generated_Source\PSoC5/QuadDec_4_PM.c **** ********************************************************************************
  53:.\Generated_Source\PSoC5/QuadDec_4_PM.c **** * Summary:
  54:.\Generated_Source\PSoC5/QuadDec_4_PM.c **** *  Restores the current user configuration of the component.
  55:.\Generated_Source\PSoC5/QuadDec_4_PM.c **** *
  56:.\Generated_Source\PSoC5/QuadDec_4_PM.c **** * Parameters:
  57:.\Generated_Source\PSoC5/QuadDec_4_PM.c **** *  None.
ARM GAS  C:\Users\BIOMIM~1\AppData\Local\Temp\cc2zDI83.s 			page 3


  58:.\Generated_Source\PSoC5/QuadDec_4_PM.c **** *
  59:.\Generated_Source\PSoC5/QuadDec_4_PM.c **** * Return:
  60:.\Generated_Source\PSoC5/QuadDec_4_PM.c **** *  None.
  61:.\Generated_Source\PSoC5/QuadDec_4_PM.c **** *
  62:.\Generated_Source\PSoC5/QuadDec_4_PM.c **** *******************************************************************************/
  63:.\Generated_Source\PSoC5/QuadDec_4_PM.c **** void QuadDec_4_RestoreConfig(void) 
  64:.\Generated_Source\PSoC5/QuadDec_4_PM.c **** {
  58              		.loc 1 64 0
  59              		.cfi_startproc
  60              		@ args = 0, pretend = 0, frame = 0
  61              		@ frame_needed = 1, uses_anonymous_args = 0
  62 0000 80B5     		push	{r7, lr}
  63              	.LCFI2:
  64              		.cfi_def_cfa_offset 8
  65              		.cfi_offset 7, -8
  66              		.cfi_offset 14, -4
  67 0002 00AF     		add	r7, sp, #0
  68              	.LCFI3:
  69              		.cfi_def_cfa_register 7
  65:.\Generated_Source\PSoC5/QuadDec_4_PM.c ****     #if (QuadDec_4_COUNTER_SIZE == QuadDec_4_COUNTER_SIZE_8_BIT)
  66:.\Generated_Source\PSoC5/QuadDec_4_PM.c ****         QuadDec_4_Cnt8_RestoreConfig();
  67:.\Generated_Source\PSoC5/QuadDec_4_PM.c ****     #else 
  68:.\Generated_Source\PSoC5/QuadDec_4_PM.c ****         /* (QuadDec_4_COUNTER_SIZE == QuadDec_4_COUNTER_SIZE_16_BIT) || 
  69:.\Generated_Source\PSoC5/QuadDec_4_PM.c ****          * (QuadDec_4_COUNTER_SIZE == QuadDec_4_COUNTER_SIZE_32_BIT) 
  70:.\Generated_Source\PSoC5/QuadDec_4_PM.c ****          */
  71:.\Generated_Source\PSoC5/QuadDec_4_PM.c ****         QuadDec_4_Cnt16_RestoreConfig();
  70              		.loc 1 71 0
  71 0004 FFF7FEFF 		bl	QuadDec_4_Cnt16_RestoreConfig
  72:.\Generated_Source\PSoC5/QuadDec_4_PM.c ****     #endif /* (QuadDec_4_COUNTER_SIZE == QuadDec_4_COUNTER_SIZE_8_BIT) */
  73:.\Generated_Source\PSoC5/QuadDec_4_PM.c **** }
  72              		.loc 1 73 0
  73 0008 80BD     		pop	{r7, pc}
  74              		.cfi_endproc
  75              	.LFE1:
  76              		.size	QuadDec_4_RestoreConfig, .-QuadDec_4_RestoreConfig
  77 000a 00BF     		.section	.text.QuadDec_4_Sleep,"ax",%progbits
  78              		.align	2
  79              		.global	QuadDec_4_Sleep
  80              		.thumb
  81              		.thumb_func
  82              		.type	QuadDec_4_Sleep, %function
  83              	QuadDec_4_Sleep:
  84              	.LFB2:
  74:.\Generated_Source\PSoC5/QuadDec_4_PM.c **** 
  75:.\Generated_Source\PSoC5/QuadDec_4_PM.c **** 
  76:.\Generated_Source\PSoC5/QuadDec_4_PM.c **** /*******************************************************************************
  77:.\Generated_Source\PSoC5/QuadDec_4_PM.c **** * Function Name: QuadDec_4_Sleep
  78:.\Generated_Source\PSoC5/QuadDec_4_PM.c **** ********************************************************************************
  79:.\Generated_Source\PSoC5/QuadDec_4_PM.c **** * 
  80:.\Generated_Source\PSoC5/QuadDec_4_PM.c **** * Summary:
  81:.\Generated_Source\PSoC5/QuadDec_4_PM.c **** *  Prepare Quadrature Decoder Component goes to sleep.
  82:.\Generated_Source\PSoC5/QuadDec_4_PM.c **** *
  83:.\Generated_Source\PSoC5/QuadDec_4_PM.c **** * Parameters:
  84:.\Generated_Source\PSoC5/QuadDec_4_PM.c **** *  None.
  85:.\Generated_Source\PSoC5/QuadDec_4_PM.c **** *
  86:.\Generated_Source\PSoC5/QuadDec_4_PM.c **** * Return:
  87:.\Generated_Source\PSoC5/QuadDec_4_PM.c **** *  None.
ARM GAS  C:\Users\BIOMIM~1\AppData\Local\Temp\cc2zDI83.s 			page 4


  88:.\Generated_Source\PSoC5/QuadDec_4_PM.c **** *
  89:.\Generated_Source\PSoC5/QuadDec_4_PM.c **** * Global Variables:
  90:.\Generated_Source\PSoC5/QuadDec_4_PM.c **** *  QuadDec_4_backup - modified when non-retention registers are saved.
  91:.\Generated_Source\PSoC5/QuadDec_4_PM.c **** *
  92:.\Generated_Source\PSoC5/QuadDec_4_PM.c **** * Reentrant:
  93:.\Generated_Source\PSoC5/QuadDec_4_PM.c **** *  No.
  94:.\Generated_Source\PSoC5/QuadDec_4_PM.c **** *
  95:.\Generated_Source\PSoC5/QuadDec_4_PM.c **** *******************************************************************************/
  96:.\Generated_Source\PSoC5/QuadDec_4_PM.c **** void QuadDec_4_Sleep(void) 
  97:.\Generated_Source\PSoC5/QuadDec_4_PM.c **** {
  85              		.loc 1 97 0
  86              		.cfi_startproc
  87              		@ args = 0, pretend = 0, frame = 0
  88              		@ frame_needed = 1, uses_anonymous_args = 0
  89 0000 80B5     		push	{r7, lr}
  90              	.LCFI4:
  91              		.cfi_def_cfa_offset 8
  92              		.cfi_offset 7, -8
  93              		.cfi_offset 14, -4
  94 0002 00AF     		add	r7, sp, #0
  95              	.LCFI5:
  96              		.cfi_def_cfa_register 7
  98:.\Generated_Source\PSoC5/QuadDec_4_PM.c ****     if (0u != (QuadDec_4_SR_AUX_CONTROL & QuadDec_4_INTERRUPTS_ENABLE))
  97              		.loc 1 98 0
  98 0004 46F29643 		movw	r3, #25750
  99 0008 C4F20003 		movt	r3, 16384
 100 000c 1B78     		ldrb	r3, [r3, #0]
 101 000e DBB2     		uxtb	r3, r3
 102 0010 03F01003 		and	r3, r3, #16
 103 0014 002B     		cmp	r3, #0
 104 0016 07D0     		beq	.L4
  99:.\Generated_Source\PSoC5/QuadDec_4_PM.c ****     {
 100:.\Generated_Source\PSoC5/QuadDec_4_PM.c ****         QuadDec_4_backup.enableState = 1u;
 105              		.loc 1 100 0
 106 0018 40F20003 		movw	r3, #:lower16:QuadDec_4_backup
 107 001c C0F20003 		movt	r3, #:upper16:QuadDec_4_backup
 108 0020 4FF00102 		mov	r2, #1
 109 0024 1A70     		strb	r2, [r3, #0]
 110 0026 06E0     		b	.L5
 111              	.L4:
 101:.\Generated_Source\PSoC5/QuadDec_4_PM.c ****     }
 102:.\Generated_Source\PSoC5/QuadDec_4_PM.c ****     else /* The Quadrature Decoder Component is disabled */
 103:.\Generated_Source\PSoC5/QuadDec_4_PM.c ****     {
 104:.\Generated_Source\PSoC5/QuadDec_4_PM.c ****         QuadDec_4_backup.enableState = 0u;
 112              		.loc 1 104 0
 113 0028 40F20003 		movw	r3, #:lower16:QuadDec_4_backup
 114 002c C0F20003 		movt	r3, #:upper16:QuadDec_4_backup
 115 0030 4FF00002 		mov	r2, #0
 116 0034 1A70     		strb	r2, [r3, #0]
 117              	.L5:
 105:.\Generated_Source\PSoC5/QuadDec_4_PM.c ****     }
 106:.\Generated_Source\PSoC5/QuadDec_4_PM.c **** 
 107:.\Generated_Source\PSoC5/QuadDec_4_PM.c ****     QuadDec_4_Stop();
 118              		.loc 1 107 0
 119 0036 FFF7FEFF 		bl	QuadDec_4_Stop
 108:.\Generated_Source\PSoC5/QuadDec_4_PM.c ****     QuadDec_4_SaveConfig();
 120              		.loc 1 108 0
ARM GAS  C:\Users\BIOMIM~1\AppData\Local\Temp\cc2zDI83.s 			page 5


 121 003a FFF7FEFF 		bl	QuadDec_4_SaveConfig
 109:.\Generated_Source\PSoC5/QuadDec_4_PM.c **** }
 122              		.loc 1 109 0
 123 003e 80BD     		pop	{r7, pc}
 124              		.cfi_endproc
 125              	.LFE2:
 126              		.size	QuadDec_4_Sleep, .-QuadDec_4_Sleep
 127              		.section	.text.QuadDec_4_Wakeup,"ax",%progbits
 128              		.align	2
 129              		.global	QuadDec_4_Wakeup
 130              		.thumb
 131              		.thumb_func
 132              		.type	QuadDec_4_Wakeup, %function
 133              	QuadDec_4_Wakeup:
 134              	.LFB3:
 110:.\Generated_Source\PSoC5/QuadDec_4_PM.c **** 
 111:.\Generated_Source\PSoC5/QuadDec_4_PM.c **** 
 112:.\Generated_Source\PSoC5/QuadDec_4_PM.c **** /*******************************************************************************
 113:.\Generated_Source\PSoC5/QuadDec_4_PM.c **** * Function Name: QuadDec_4_Wakeup
 114:.\Generated_Source\PSoC5/QuadDec_4_PM.c **** ********************************************************************************
 115:.\Generated_Source\PSoC5/QuadDec_4_PM.c **** *
 116:.\Generated_Source\PSoC5/QuadDec_4_PM.c **** * Summary:
 117:.\Generated_Source\PSoC5/QuadDec_4_PM.c **** *  Prepare Quadrature Decoder Component to wake up.
 118:.\Generated_Source\PSoC5/QuadDec_4_PM.c **** *
 119:.\Generated_Source\PSoC5/QuadDec_4_PM.c **** * Parameters:
 120:.\Generated_Source\PSoC5/QuadDec_4_PM.c **** *  None.
 121:.\Generated_Source\PSoC5/QuadDec_4_PM.c **** *
 122:.\Generated_Source\PSoC5/QuadDec_4_PM.c **** * Return:
 123:.\Generated_Source\PSoC5/QuadDec_4_PM.c **** *  None.
 124:.\Generated_Source\PSoC5/QuadDec_4_PM.c **** *
 125:.\Generated_Source\PSoC5/QuadDec_4_PM.c **** * Global Variables:
 126:.\Generated_Source\PSoC5/QuadDec_4_PM.c **** *  QuadDec_4_backup - used when non-retention registers are restored.
 127:.\Generated_Source\PSoC5/QuadDec_4_PM.c **** *
 128:.\Generated_Source\PSoC5/QuadDec_4_PM.c **** *******************************************************************************/
 129:.\Generated_Source\PSoC5/QuadDec_4_PM.c **** void QuadDec_4_Wakeup(void) 
 130:.\Generated_Source\PSoC5/QuadDec_4_PM.c **** {
 135              		.loc 1 130 0
 136              		.cfi_startproc
 137              		@ args = 0, pretend = 0, frame = 0
 138              		@ frame_needed = 1, uses_anonymous_args = 0
 139 0000 80B5     		push	{r7, lr}
 140              	.LCFI6:
 141              		.cfi_def_cfa_offset 8
 142              		.cfi_offset 7, -8
 143              		.cfi_offset 14, -4
 144 0002 00AF     		add	r7, sp, #0
 145              	.LCFI7:
 146              		.cfi_def_cfa_register 7
 131:.\Generated_Source\PSoC5/QuadDec_4_PM.c ****     QuadDec_4_RestoreConfig();
 147              		.loc 1 131 0
 148 0004 FFF7FEFF 		bl	QuadDec_4_RestoreConfig
 132:.\Generated_Source\PSoC5/QuadDec_4_PM.c **** 
 133:.\Generated_Source\PSoC5/QuadDec_4_PM.c ****     if (QuadDec_4_backup.enableState != 0u)
 149              		.loc 1 133 0
 150 0008 40F20003 		movw	r3, #:lower16:QuadDec_4_backup
 151 000c C0F20003 		movt	r3, #:upper16:QuadDec_4_backup
 152 0010 1B78     		ldrb	r3, [r3, #0]	@ zero_extendqisi2
ARM GAS  C:\Users\BIOMIM~1\AppData\Local\Temp\cc2zDI83.s 			page 6


 153 0012 002B     		cmp	r3, #0
 154 0014 03D0     		beq	.L6
 134:.\Generated_Source\PSoC5/QuadDec_4_PM.c ****     {
 135:.\Generated_Source\PSoC5/QuadDec_4_PM.c ****         #if (QuadDec_4_COUNTER_SIZE == QuadDec_4_COUNTER_SIZE_8_BIT)
 136:.\Generated_Source\PSoC5/QuadDec_4_PM.c ****             QuadDec_4_Cnt8_Enable();
 137:.\Generated_Source\PSoC5/QuadDec_4_PM.c ****         #else 
 138:.\Generated_Source\PSoC5/QuadDec_4_PM.c ****             /* (QuadDec_4_COUNTER_SIZE == QuadDec_4_COUNTER_SIZE_16_BIT) || 
 139:.\Generated_Source\PSoC5/QuadDec_4_PM.c ****             *  (QuadDec_4_COUNTER_SIZE == QuadDec_4_COUNTER_SIZE_32_BIT) 
 140:.\Generated_Source\PSoC5/QuadDec_4_PM.c ****             */
 141:.\Generated_Source\PSoC5/QuadDec_4_PM.c ****             QuadDec_4_Cnt16_Enable();
 155              		.loc 1 141 0
 156 0016 FFF7FEFF 		bl	QuadDec_4_Cnt16_Enable
 142:.\Generated_Source\PSoC5/QuadDec_4_PM.c ****         #endif /* (QuadDec_4_COUNTER_SIZE == QuadDec_4_COUNTER_SIZE_8_BIT) */
 143:.\Generated_Source\PSoC5/QuadDec_4_PM.c **** 
 144:.\Generated_Source\PSoC5/QuadDec_4_PM.c ****         /* Enable component's operation */
 145:.\Generated_Source\PSoC5/QuadDec_4_PM.c ****         QuadDec_4_Enable();
 157              		.loc 1 145 0
 158 001a FFF7FEFF 		bl	QuadDec_4_Enable
 159              	.L6:
 146:.\Generated_Source\PSoC5/QuadDec_4_PM.c ****     } /* Do nothing if component's block was disabled before */
 147:.\Generated_Source\PSoC5/QuadDec_4_PM.c **** }
 160              		.loc 1 147 0
 161 001e 80BD     		pop	{r7, pc}
 162              		.cfi_endproc
 163              	.LFE3:
 164              		.size	QuadDec_4_Wakeup, .-QuadDec_4_Wakeup
 165              		.text
 166              	.Letext0:
 167              		.file 2 ".\\Generated_Source\\PSoC5\\cytypes.h"
 168              		.file 3 ".\\Generated_Source\\PSoC5\\QuadDec_4.h"