ARM GAS  C:\Users\BIOMIM~1\AppData\Local\Temp\ccUOXzhW.s 			page 1


   1              		.syntax unified
   2              		.cpu cortex-m3
   3              		.fpu softvfp
   4              		.eabi_attribute 20, 1
   5              		.eabi_attribute 21, 1
   6              		.eabi_attribute 23, 3
   7              		.eabi_attribute 24, 1
   8              		.eabi_attribute 25, 1
   9              		.eabi_attribute 26, 1
  10              		.eabi_attribute 30, 6
  11              		.eabi_attribute 34, 1
  12              		.eabi_attribute 18, 4
  13              		.thumb
  14              		.file	"QuadDec_2_Cnt16.c"
  15              		.text
  16              	.Ltext0:
  17              		.cfi_sections	.debug_frame
  18              		.global	QuadDec_2_Cnt16_initVar
  19              		.bss
  20              		.type	QuadDec_2_Cnt16_initVar, %object
  21              		.size	QuadDec_2_Cnt16_initVar, 1
  22              	QuadDec_2_Cnt16_initVar:
  23 0000 00       		.space	1
  24              		.section	.text.QuadDec_2_Cnt16_Init,"ax",%progbits
  25              		.align	2
  26              		.global	QuadDec_2_Cnt16_Init
  27              		.thumb
  28              		.thumb_func
  29              		.type	QuadDec_2_Cnt16_Init, %function
  30              	QuadDec_2_Cnt16_Init:
  31              	.LFB0:
  32              		.file 1 ".\\Generated_Source\\PSoC5\\QuadDec_2_Cnt16.c"
   1:.\Generated_Source\PSoC5/QuadDec_2_Cnt16.c **** /*******************************************************************************
   2:.\Generated_Source\PSoC5/QuadDec_2_Cnt16.c **** * File Name: QuadDec_2_Cnt16.c  
   3:.\Generated_Source\PSoC5/QuadDec_2_Cnt16.c **** * Version 2.40
   4:.\Generated_Source\PSoC5/QuadDec_2_Cnt16.c **** *
   5:.\Generated_Source\PSoC5/QuadDec_2_Cnt16.c **** *  Description:
   6:.\Generated_Source\PSoC5/QuadDec_2_Cnt16.c **** *     The Counter component consists of a 8, 16, 24 or 32-bit counter with
   7:.\Generated_Source\PSoC5/QuadDec_2_Cnt16.c **** *     a selectable period between 2 and 2^Width - 1.  
   8:.\Generated_Source\PSoC5/QuadDec_2_Cnt16.c **** *
   9:.\Generated_Source\PSoC5/QuadDec_2_Cnt16.c **** *   Note:
  10:.\Generated_Source\PSoC5/QuadDec_2_Cnt16.c **** *     None
  11:.\Generated_Source\PSoC5/QuadDec_2_Cnt16.c **** *
  12:.\Generated_Source\PSoC5/QuadDec_2_Cnt16.c **** *******************************************************************************
  13:.\Generated_Source\PSoC5/QuadDec_2_Cnt16.c **** * Copyright 2008-2012, Cypress Semiconductor Corporation.  All rights reserved.
  14:.\Generated_Source\PSoC5/QuadDec_2_Cnt16.c **** * You may use this file only in accordance with the license, terms, conditions, 
  15:.\Generated_Source\PSoC5/QuadDec_2_Cnt16.c **** * disclaimers, and limitations in the end user license agreement accompanying 
  16:.\Generated_Source\PSoC5/QuadDec_2_Cnt16.c **** * the software package with which this file was provided.
  17:.\Generated_Source\PSoC5/QuadDec_2_Cnt16.c **** ********************************************************************************/
  18:.\Generated_Source\PSoC5/QuadDec_2_Cnt16.c **** 
  19:.\Generated_Source\PSoC5/QuadDec_2_Cnt16.c **** #include "QuadDec_2_Cnt16.h"
  20:.\Generated_Source\PSoC5/QuadDec_2_Cnt16.c **** 
  21:.\Generated_Source\PSoC5/QuadDec_2_Cnt16.c **** uint8 QuadDec_2_Cnt16_initVar = 0u;
  22:.\Generated_Source\PSoC5/QuadDec_2_Cnt16.c **** 
  23:.\Generated_Source\PSoC5/QuadDec_2_Cnt16.c **** 
  24:.\Generated_Source\PSoC5/QuadDec_2_Cnt16.c **** /*******************************************************************************
  25:.\Generated_Source\PSoC5/QuadDec_2_Cnt16.c **** * Function Name: QuadDec_2_Cnt16_Init
ARM GAS  C:\Users\BIOMIM~1\AppData\Local\Temp\ccUOXzhW.s 			page 2


  26:.\Generated_Source\PSoC5/QuadDec_2_Cnt16.c **** ********************************************************************************
  27:.\Generated_Source\PSoC5/QuadDec_2_Cnt16.c **** * Summary:
  28:.\Generated_Source\PSoC5/QuadDec_2_Cnt16.c **** *     Initialize to the schematic state
  29:.\Generated_Source\PSoC5/QuadDec_2_Cnt16.c **** * 
  30:.\Generated_Source\PSoC5/QuadDec_2_Cnt16.c **** * Parameters:  
  31:.\Generated_Source\PSoC5/QuadDec_2_Cnt16.c **** *  void  
  32:.\Generated_Source\PSoC5/QuadDec_2_Cnt16.c **** *
  33:.\Generated_Source\PSoC5/QuadDec_2_Cnt16.c **** * Return: 
  34:.\Generated_Source\PSoC5/QuadDec_2_Cnt16.c **** *  void
  35:.\Generated_Source\PSoC5/QuadDec_2_Cnt16.c **** *
  36:.\Generated_Source\PSoC5/QuadDec_2_Cnt16.c **** *******************************************************************************/
  37:.\Generated_Source\PSoC5/QuadDec_2_Cnt16.c **** void QuadDec_2_Cnt16_Init(void) 
  38:.\Generated_Source\PSoC5/QuadDec_2_Cnt16.c **** {
  33              		.loc 1 38 0
  34              		.cfi_startproc
  35              		@ args = 0, pretend = 0, frame = 8
  36              		@ frame_needed = 1, uses_anonymous_args = 0
  37 0000 80B5     		push	{r7, lr}
  38              	.LCFI0:
  39              		.cfi_def_cfa_offset 8
  40              		.cfi_offset 7, -8
  41              		.cfi_offset 14, -4
  42 0002 82B0     		sub	sp, sp, #8
  43              	.LCFI1:
  44              		.cfi_def_cfa_offset 16
  45 0004 00AF     		add	r7, sp, #0
  46              	.LCFI2:
  47              		.cfi_def_cfa_register 7
  39:.\Generated_Source\PSoC5/QuadDec_2_Cnt16.c ****         #if (!QuadDec_2_Cnt16_UsingFixedFunction && !QuadDec_2_Cnt16_ControlRegRemoved)
  40:.\Generated_Source\PSoC5/QuadDec_2_Cnt16.c ****             uint8 ctrl;
  41:.\Generated_Source\PSoC5/QuadDec_2_Cnt16.c ****         #endif /* (!QuadDec_2_Cnt16_UsingFixedFunction && !QuadDec_2_Cnt16_ControlRegRemoved) */
  42:.\Generated_Source\PSoC5/QuadDec_2_Cnt16.c ****         
  43:.\Generated_Source\PSoC5/QuadDec_2_Cnt16.c ****         #if(!QuadDec_2_Cnt16_UsingFixedFunction) 
  44:.\Generated_Source\PSoC5/QuadDec_2_Cnt16.c ****             /* Interrupt State Backup for Critical Region*/
  45:.\Generated_Source\PSoC5/QuadDec_2_Cnt16.c ****             uint8 QuadDec_2_Cnt16_interruptState;
  46:.\Generated_Source\PSoC5/QuadDec_2_Cnt16.c ****         #endif /* (!QuadDec_2_Cnt16_UsingFixedFunction) */
  47:.\Generated_Source\PSoC5/QuadDec_2_Cnt16.c ****         
  48:.\Generated_Source\PSoC5/QuadDec_2_Cnt16.c ****         #if (QuadDec_2_Cnt16_UsingFixedFunction)
  49:.\Generated_Source\PSoC5/QuadDec_2_Cnt16.c ****             /* Clear all bits but the enable bit (if it's already set for Timer operation */
  50:.\Generated_Source\PSoC5/QuadDec_2_Cnt16.c ****             QuadDec_2_Cnt16_CONTROL &= QuadDec_2_Cnt16_CTRL_ENABLE;
  51:.\Generated_Source\PSoC5/QuadDec_2_Cnt16.c ****             
  52:.\Generated_Source\PSoC5/QuadDec_2_Cnt16.c ****             /* Clear the mode bits for continuous run mode */
  53:.\Generated_Source\PSoC5/QuadDec_2_Cnt16.c ****             #if (CY_PSOC5A)
  54:.\Generated_Source\PSoC5/QuadDec_2_Cnt16.c ****                 QuadDec_2_Cnt16_CONTROL2 &= ((uint8)(~QuadDec_2_Cnt16_CTRL_MODE_MASK));
  55:.\Generated_Source\PSoC5/QuadDec_2_Cnt16.c ****             #endif /* (CY_PSOC5A) */
  56:.\Generated_Source\PSoC5/QuadDec_2_Cnt16.c ****             #if (CY_PSOC3 || CY_PSOC5LP)
  57:.\Generated_Source\PSoC5/QuadDec_2_Cnt16.c ****                 QuadDec_2_Cnt16_CONTROL3 &= ((uint8)(~QuadDec_2_Cnt16_CTRL_MODE_MASK));            
  58:.\Generated_Source\PSoC5/QuadDec_2_Cnt16.c ****             #endif /* (CY_PSOC3 || CY_PSOC5LP) */
  59:.\Generated_Source\PSoC5/QuadDec_2_Cnt16.c ****             /* Check if One Shot mode is enabled i.e. RunMode !=0*/
  60:.\Generated_Source\PSoC5/QuadDec_2_Cnt16.c ****             #if (QuadDec_2_Cnt16_RunModeUsed != 0x0u)
  61:.\Generated_Source\PSoC5/QuadDec_2_Cnt16.c ****                 /* Set 3rd bit of Control register to enable one shot mode */
  62:.\Generated_Source\PSoC5/QuadDec_2_Cnt16.c ****                 QuadDec_2_Cnt16_CONTROL |= QuadDec_2_Cnt16_ONESHOT;
  63:.\Generated_Source\PSoC5/QuadDec_2_Cnt16.c ****             #endif /* (QuadDec_2_Cnt16_RunModeUsed != 0x0u) */
  64:.\Generated_Source\PSoC5/QuadDec_2_Cnt16.c ****             
  65:.\Generated_Source\PSoC5/QuadDec_2_Cnt16.c ****             /* Set the IRQ to use the status register interrupts */
  66:.\Generated_Source\PSoC5/QuadDec_2_Cnt16.c ****             QuadDec_2_Cnt16_CONTROL2 |= QuadDec_2_Cnt16_CTRL2_IRQ_SEL;
  67:.\Generated_Source\PSoC5/QuadDec_2_Cnt16.c ****             
ARM GAS  C:\Users\BIOMIM~1\AppData\Local\Temp\ccUOXzhW.s 			page 3


  68:.\Generated_Source\PSoC5/QuadDec_2_Cnt16.c ****             /* Clear and Set SYNCTC and SYNCCMP bits of RT1 register */
  69:.\Generated_Source\PSoC5/QuadDec_2_Cnt16.c ****             QuadDec_2_Cnt16_RT1 &= ((uint8)(~QuadDec_2_Cnt16_RT1_MASK));
  70:.\Generated_Source\PSoC5/QuadDec_2_Cnt16.c ****             QuadDec_2_Cnt16_RT1 |= QuadDec_2_Cnt16_SYNC;     
  71:.\Generated_Source\PSoC5/QuadDec_2_Cnt16.c ****                     
  72:.\Generated_Source\PSoC5/QuadDec_2_Cnt16.c ****             /*Enable DSI Sync all all inputs of the Timer*/
  73:.\Generated_Source\PSoC5/QuadDec_2_Cnt16.c ****             QuadDec_2_Cnt16_RT1 &= ((uint8)(~QuadDec_2_Cnt16_SYNCDSI_MASK));
  74:.\Generated_Source\PSoC5/QuadDec_2_Cnt16.c ****             QuadDec_2_Cnt16_RT1 |= QuadDec_2_Cnt16_SYNCDSI_EN;
  75:.\Generated_Source\PSoC5/QuadDec_2_Cnt16.c **** 
  76:.\Generated_Source\PSoC5/QuadDec_2_Cnt16.c ****         #else
  77:.\Generated_Source\PSoC5/QuadDec_2_Cnt16.c ****             #if(!QuadDec_2_Cnt16_ControlRegRemoved)
  78:.\Generated_Source\PSoC5/QuadDec_2_Cnt16.c ****             /* Set the default compare mode defined in the parameter */
  79:.\Generated_Source\PSoC5/QuadDec_2_Cnt16.c ****             ctrl = QuadDec_2_Cnt16_CONTROL & ((uint8)(~QuadDec_2_Cnt16_CTRL_CMPMODE_MASK));
  48              		.loc 1 79 0
  49 0006 46F27D43 		movw	r3, #25725
  50 000a C4F20003 		movt	r3, 16384
  51 000e 1B78     		ldrb	r3, [r3, #0]
  52 0010 DBB2     		uxtb	r3, r3
  53 0012 23F00703 		bic	r3, r3, #7
  54 0016 FB71     		strb	r3, [r7, #7]
  80:.\Generated_Source\PSoC5/QuadDec_2_Cnt16.c ****             QuadDec_2_Cnt16_CONTROL = ctrl | QuadDec_2_Cnt16_DEFAULT_COMPARE_MODE;
  55              		.loc 1 80 0
  56 0018 46F27D43 		movw	r3, #25725
  57 001c C4F20003 		movt	r3, 16384
  58 0020 FA79     		ldrb	r2, [r7, #7]
  59 0022 1A70     		strb	r2, [r3, #0]
  81:.\Generated_Source\PSoC5/QuadDec_2_Cnt16.c ****             
  82:.\Generated_Source\PSoC5/QuadDec_2_Cnt16.c ****             /* Set the default capture mode defined in the parameter */
  83:.\Generated_Source\PSoC5/QuadDec_2_Cnt16.c ****             ctrl = QuadDec_2_Cnt16_CONTROL & ((uint8)(~QuadDec_2_Cnt16_CTRL_CAPMODE_MASK));
  60              		.loc 1 83 0
  61 0024 46F27D43 		movw	r3, #25725
  62 0028 C4F20003 		movt	r3, 16384
  63 002c 1B78     		ldrb	r3, [r3, #0]
  64 002e DBB2     		uxtb	r3, r3
  65 0030 23F00303 		bic	r3, r3, #3
  66 0034 FB71     		strb	r3, [r7, #7]
  84:.\Generated_Source\PSoC5/QuadDec_2_Cnt16.c ****             
  85:.\Generated_Source\PSoC5/QuadDec_2_Cnt16.c ****             #if( 0 != QuadDec_2_Cnt16_CAPTURE_MODE_CONF)
  86:.\Generated_Source\PSoC5/QuadDec_2_Cnt16.c ****                 QuadDec_2_Cnt16_CONTROL = ctrl | QuadDec_2_Cnt16_DEFAULT_CAPTURE_MODE;
  87:.\Generated_Source\PSoC5/QuadDec_2_Cnt16.c ****             #else
  88:.\Generated_Source\PSoC5/QuadDec_2_Cnt16.c ****                 QuadDec_2_Cnt16_CONTROL = ctrl;
  67              		.loc 1 88 0
  68 0036 46F27D43 		movw	r3, #25725
  69 003a C4F20003 		movt	r3, 16384
  70 003e FA79     		ldrb	r2, [r7, #7]
  71 0040 1A70     		strb	r2, [r3, #0]
  89:.\Generated_Source\PSoC5/QuadDec_2_Cnt16.c ****             #endif /* 0 != QuadDec_2_Cnt16_CAPTURE_MODE */ 
  90:.\Generated_Source\PSoC5/QuadDec_2_Cnt16.c ****             
  91:.\Generated_Source\PSoC5/QuadDec_2_Cnt16.c ****             #endif /* (!QuadDec_2_Cnt16_ControlRegRemoved) */
  92:.\Generated_Source\PSoC5/QuadDec_2_Cnt16.c ****         #endif /* (QuadDec_2_Cnt16_UsingFixedFunction) */
  93:.\Generated_Source\PSoC5/QuadDec_2_Cnt16.c ****         
  94:.\Generated_Source\PSoC5/QuadDec_2_Cnt16.c ****         /* Clear all data in the FIFO's */
  95:.\Generated_Source\PSoC5/QuadDec_2_Cnt16.c ****         #if (!QuadDec_2_Cnt16_UsingFixedFunction)
  96:.\Generated_Source\PSoC5/QuadDec_2_Cnt16.c ****             QuadDec_2_Cnt16_ClearFIFO();
  72              		.loc 1 96 0
  73 0042 FFF7FEFF 		bl	QuadDec_2_Cnt16_ClearFIFO
  97:.\Generated_Source\PSoC5/QuadDec_2_Cnt16.c ****         #endif /* (!QuadDec_2_Cnt16_UsingFixedFunction) */
  98:.\Generated_Source\PSoC5/QuadDec_2_Cnt16.c ****         
ARM GAS  C:\Users\BIOMIM~1\AppData\Local\Temp\ccUOXzhW.s 			page 4


  99:.\Generated_Source\PSoC5/QuadDec_2_Cnt16.c ****         /* Set Initial values from Configuration */
 100:.\Generated_Source\PSoC5/QuadDec_2_Cnt16.c ****         QuadDec_2_Cnt16_WritePeriod(QuadDec_2_Cnt16_INIT_PERIOD_VALUE);
  74              		.loc 1 100 0
  75 0046 4FF40040 		mov	r0, #32768
  76 004a FFF7FEFF 		bl	QuadDec_2_Cnt16_WritePeriod
 101:.\Generated_Source\PSoC5/QuadDec_2_Cnt16.c ****         #if (!(QuadDec_2_Cnt16_UsingFixedFunction && (CY_PSOC5A)))
 102:.\Generated_Source\PSoC5/QuadDec_2_Cnt16.c ****             QuadDec_2_Cnt16_WriteCounter(QuadDec_2_Cnt16_INIT_COUNTER_VALUE);
  77              		.loc 1 102 0
  78 004e 4FF40040 		mov	r0, #32768
  79 0052 FFF7FEFF 		bl	QuadDec_2_Cnt16_WriteCounter
 103:.\Generated_Source\PSoC5/QuadDec_2_Cnt16.c ****         #endif /* (!(QuadDec_2_Cnt16_UsingFixedFunction && (CY_PSOC5A))) */
 104:.\Generated_Source\PSoC5/QuadDec_2_Cnt16.c ****         QuadDec_2_Cnt16_SetInterruptMode(QuadDec_2_Cnt16_INIT_INTERRUPTS_MASK);
  80              		.loc 1 104 0
  81 0056 4FF00000 		mov	r0, #0
  82 005a FFF7FEFF 		bl	QuadDec_2_Cnt16_SetInterruptMode
 105:.\Generated_Source\PSoC5/QuadDec_2_Cnt16.c ****         
 106:.\Generated_Source\PSoC5/QuadDec_2_Cnt16.c ****         #if (!QuadDec_2_Cnt16_UsingFixedFunction)
 107:.\Generated_Source\PSoC5/QuadDec_2_Cnt16.c ****             /* Read the status register to clear the unwanted interrupts */
 108:.\Generated_Source\PSoC5/QuadDec_2_Cnt16.c ****             (void)QuadDec_2_Cnt16_ReadStatusRegister();
  83              		.loc 1 108 0
  84 005e FFF7FEFF 		bl	QuadDec_2_Cnt16_ReadStatusRegister
 109:.\Generated_Source\PSoC5/QuadDec_2_Cnt16.c ****             /* Set the compare value (only available to non-fixed function implementation */
 110:.\Generated_Source\PSoC5/QuadDec_2_Cnt16.c ****             QuadDec_2_Cnt16_WriteCompare(QuadDec_2_Cnt16_INIT_COMPARE_VALUE);
  85              		.loc 1 110 0
  86 0062 4FF40040 		mov	r0, #32768
  87 0066 FFF7FEFF 		bl	QuadDec_2_Cnt16_WriteCompare
 111:.\Generated_Source\PSoC5/QuadDec_2_Cnt16.c ****             /* Use the interrupt output of the status register for IRQ output */
 112:.\Generated_Source\PSoC5/QuadDec_2_Cnt16.c ****             
 113:.\Generated_Source\PSoC5/QuadDec_2_Cnt16.c ****             /* CyEnterCriticalRegion and CyExitCriticalRegion are used to mark following region cri
 114:.\Generated_Source\PSoC5/QuadDec_2_Cnt16.c ****             /* Enter Critical Region*/
 115:.\Generated_Source\PSoC5/QuadDec_2_Cnt16.c ****             QuadDec_2_Cnt16_interruptState = CyEnterCriticalSection();
  88              		.loc 1 115 0
  89 006a FFF7FEFF 		bl	CyEnterCriticalSection
  90 006e 0346     		mov	r3, r0
  91 0070 BB71     		strb	r3, [r7, #6]
 116:.\Generated_Source\PSoC5/QuadDec_2_Cnt16.c ****             
 117:.\Generated_Source\PSoC5/QuadDec_2_Cnt16.c ****             QuadDec_2_Cnt16_STATUS_AUX_CTRL |= QuadDec_2_Cnt16_STATUS_ACTL_INT_EN_MASK;
  92              		.loc 1 117 0
  93 0072 46F29E43 		movw	r3, #25758
  94 0076 C4F20003 		movt	r3, 16384
  95 007a 46F29E42 		movw	r2, #25758
  96 007e C4F20002 		movt	r2, 16384
  97 0082 1278     		ldrb	r2, [r2, #0]
  98 0084 D2B2     		uxtb	r2, r2
  99 0086 42F01002 		orr	r2, r2, #16
 100 008a D2B2     		uxtb	r2, r2
 101 008c 1A70     		strb	r2, [r3, #0]
 118:.\Generated_Source\PSoC5/QuadDec_2_Cnt16.c ****             
 119:.\Generated_Source\PSoC5/QuadDec_2_Cnt16.c ****             /* Exit Critical Region*/
 120:.\Generated_Source\PSoC5/QuadDec_2_Cnt16.c ****             CyExitCriticalSection(QuadDec_2_Cnt16_interruptState);
 102              		.loc 1 120 0
 103 008e BB79     		ldrb	r3, [r7, #6]	@ zero_extendqisi2
 104 0090 1846     		mov	r0, r3
 105 0092 FFF7FEFF 		bl	CyExitCriticalSection
 121:.\Generated_Source\PSoC5/QuadDec_2_Cnt16.c ****             
 122:.\Generated_Source\PSoC5/QuadDec_2_Cnt16.c ****         #endif /* (!QuadDec_2_Cnt16_UsingFixedFunction) */
 123:.\Generated_Source\PSoC5/QuadDec_2_Cnt16.c **** }
ARM GAS  C:\Users\BIOMIM~1\AppData\Local\Temp\ccUOXzhW.s 			page 5


 106              		.loc 1 123 0
 107 0096 07F10807 		add	r7, r7, #8
 108 009a BD46     		mov	sp, r7
 109 009c 80BD     		pop	{r7, pc}
 110              		.cfi_endproc
 111              	.LFE0:
 112              		.size	QuadDec_2_Cnt16_Init, .-QuadDec_2_Cnt16_Init
 113 009e 00BF     		.section	.text.QuadDec_2_Cnt16_Enable,"ax",%progbits
 114              		.align	2
 115              		.global	QuadDec_2_Cnt16_Enable
 116              		.thumb
 117              		.thumb_func
 118              		.type	QuadDec_2_Cnt16_Enable, %function
 119              	QuadDec_2_Cnt16_Enable:
 120              	.LFB1:
 124:.\Generated_Source\PSoC5/QuadDec_2_Cnt16.c **** 
 125:.\Generated_Source\PSoC5/QuadDec_2_Cnt16.c **** 
 126:.\Generated_Source\PSoC5/QuadDec_2_Cnt16.c **** /*******************************************************************************
 127:.\Generated_Source\PSoC5/QuadDec_2_Cnt16.c **** * Function Name: QuadDec_2_Cnt16_Enable
 128:.\Generated_Source\PSoC5/QuadDec_2_Cnt16.c **** ********************************************************************************
 129:.\Generated_Source\PSoC5/QuadDec_2_Cnt16.c **** * Summary:
 130:.\Generated_Source\PSoC5/QuadDec_2_Cnt16.c **** *     Enable the Counter
 131:.\Generated_Source\PSoC5/QuadDec_2_Cnt16.c **** * 
 132:.\Generated_Source\PSoC5/QuadDec_2_Cnt16.c **** * Parameters:  
 133:.\Generated_Source\PSoC5/QuadDec_2_Cnt16.c **** *  void  
 134:.\Generated_Source\PSoC5/QuadDec_2_Cnt16.c **** *
 135:.\Generated_Source\PSoC5/QuadDec_2_Cnt16.c **** * Return: 
 136:.\Generated_Source\PSoC5/QuadDec_2_Cnt16.c **** *  void
 137:.\Generated_Source\PSoC5/QuadDec_2_Cnt16.c **** *
 138:.\Generated_Source\PSoC5/QuadDec_2_Cnt16.c **** * Side Effects: 
 139:.\Generated_Source\PSoC5/QuadDec_2_Cnt16.c **** *   If the Enable mode is set to Hardware only then this function has no effect 
 140:.\Generated_Source\PSoC5/QuadDec_2_Cnt16.c **** *   on the operation of the counter.
 141:.\Generated_Source\PSoC5/QuadDec_2_Cnt16.c **** *
 142:.\Generated_Source\PSoC5/QuadDec_2_Cnt16.c **** *******************************************************************************/
 143:.\Generated_Source\PSoC5/QuadDec_2_Cnt16.c **** void QuadDec_2_Cnt16_Enable(void) 
 144:.\Generated_Source\PSoC5/QuadDec_2_Cnt16.c **** {
 121              		.loc 1 144 0
 122              		.cfi_startproc
 123              		@ args = 0, pretend = 0, frame = 0
 124              		@ frame_needed = 1, uses_anonymous_args = 0
 125              		@ link register save eliminated.
 126 0000 80B4     		push	{r7}
 127              	.LCFI3:
 128              		.cfi_def_cfa_offset 4
 129              		.cfi_offset 7, -4
 130 0002 00AF     		add	r7, sp, #0
 131              	.LCFI4:
 132              		.cfi_def_cfa_register 7
 145:.\Generated_Source\PSoC5/QuadDec_2_Cnt16.c ****     /* Globally Enable the Fixed Function Block chosen */
 146:.\Generated_Source\PSoC5/QuadDec_2_Cnt16.c ****     #if (QuadDec_2_Cnt16_UsingFixedFunction)
 147:.\Generated_Source\PSoC5/QuadDec_2_Cnt16.c ****         QuadDec_2_Cnt16_GLOBAL_ENABLE |= QuadDec_2_Cnt16_BLOCK_EN_MASK;
 148:.\Generated_Source\PSoC5/QuadDec_2_Cnt16.c ****         QuadDec_2_Cnt16_GLOBAL_STBY_ENABLE |= QuadDec_2_Cnt16_BLOCK_STBY_EN_MASK;
 149:.\Generated_Source\PSoC5/QuadDec_2_Cnt16.c ****     #endif /* (QuadDec_2_Cnt16_UsingFixedFunction) */  
 150:.\Generated_Source\PSoC5/QuadDec_2_Cnt16.c ****         
 151:.\Generated_Source\PSoC5/QuadDec_2_Cnt16.c ****     /* Enable the counter from the control register  */
 152:.\Generated_Source\PSoC5/QuadDec_2_Cnt16.c ****     /* If Fixed Function then make sure Mode is set correctly */
 153:.\Generated_Source\PSoC5/QuadDec_2_Cnt16.c ****     /* else make sure reset is clear */
ARM GAS  C:\Users\BIOMIM~1\AppData\Local\Temp\ccUOXzhW.s 			page 6


 154:.\Generated_Source\PSoC5/QuadDec_2_Cnt16.c ****     #if(!QuadDec_2_Cnt16_ControlRegRemoved || QuadDec_2_Cnt16_UsingFixedFunction)
 155:.\Generated_Source\PSoC5/QuadDec_2_Cnt16.c ****         QuadDec_2_Cnt16_CONTROL |= QuadDec_2_Cnt16_CTRL_ENABLE;                
 133              		.loc 1 155 0
 134 0004 46F27D43 		movw	r3, #25725
 135 0008 C4F20003 		movt	r3, 16384
 136 000c 46F27D42 		movw	r2, #25725
 137 0010 C4F20002 		movt	r2, 16384
 138 0014 1278     		ldrb	r2, [r2, #0]
 139 0016 D2B2     		uxtb	r2, r2
 140 0018 62F07F02 		orn	r2, r2, #127
 141 001c D2B2     		uxtb	r2, r2
 142 001e 1A70     		strb	r2, [r3, #0]
 156:.\Generated_Source\PSoC5/QuadDec_2_Cnt16.c ****     #endif /* (!QuadDec_2_Cnt16_ControlRegRemoved || QuadDec_2_Cnt16_UsingFixedFunction) */
 157:.\Generated_Source\PSoC5/QuadDec_2_Cnt16.c ****     
 158:.\Generated_Source\PSoC5/QuadDec_2_Cnt16.c **** }
 143              		.loc 1 158 0
 144 0020 BD46     		mov	sp, r7
 145 0022 80BC     		pop	{r7}
 146 0024 7047     		bx	lr
 147              		.cfi_endproc
 148              	.LFE1:
 149              		.size	QuadDec_2_Cnt16_Enable, .-QuadDec_2_Cnt16_Enable
 150 0026 00BF     		.section	.text.QuadDec_2_Cnt16_Start,"ax",%progbits
 151              		.align	2
 152              		.global	QuadDec_2_Cnt16_Start
 153              		.thumb
 154              		.thumb_func
 155              		.type	QuadDec_2_Cnt16_Start, %function
 156              	QuadDec_2_Cnt16_Start:
 157              	.LFB2:
 159:.\Generated_Source\PSoC5/QuadDec_2_Cnt16.c **** 
 160:.\Generated_Source\PSoC5/QuadDec_2_Cnt16.c **** 
 161:.\Generated_Source\PSoC5/QuadDec_2_Cnt16.c **** /*******************************************************************************
 162:.\Generated_Source\PSoC5/QuadDec_2_Cnt16.c **** * Function Name: QuadDec_2_Cnt16_Start
 163:.\Generated_Source\PSoC5/QuadDec_2_Cnt16.c **** ********************************************************************************
 164:.\Generated_Source\PSoC5/QuadDec_2_Cnt16.c **** * Summary:
 165:.\Generated_Source\PSoC5/QuadDec_2_Cnt16.c **** *  Enables the counter for operation 
 166:.\Generated_Source\PSoC5/QuadDec_2_Cnt16.c **** *
 167:.\Generated_Source\PSoC5/QuadDec_2_Cnt16.c **** * Parameters:  
 168:.\Generated_Source\PSoC5/QuadDec_2_Cnt16.c **** *  void  
 169:.\Generated_Source\PSoC5/QuadDec_2_Cnt16.c **** *
 170:.\Generated_Source\PSoC5/QuadDec_2_Cnt16.c **** * Return: 
 171:.\Generated_Source\PSoC5/QuadDec_2_Cnt16.c **** *  void
 172:.\Generated_Source\PSoC5/QuadDec_2_Cnt16.c **** *
 173:.\Generated_Source\PSoC5/QuadDec_2_Cnt16.c **** * Global variables:
 174:.\Generated_Source\PSoC5/QuadDec_2_Cnt16.c **** *  QuadDec_2_Cnt16_initVar: Is modified when this function is called for the  
 175:.\Generated_Source\PSoC5/QuadDec_2_Cnt16.c **** *   first time. Is used to ensure that initialization happens only once.
 176:.\Generated_Source\PSoC5/QuadDec_2_Cnt16.c **** *
 177:.\Generated_Source\PSoC5/QuadDec_2_Cnt16.c **** *******************************************************************************/
 178:.\Generated_Source\PSoC5/QuadDec_2_Cnt16.c **** void QuadDec_2_Cnt16_Start(void) 
 179:.\Generated_Source\PSoC5/QuadDec_2_Cnt16.c **** {
 158              		.loc 1 179 0
 159              		.cfi_startproc
 160              		@ args = 0, pretend = 0, frame = 0
 161              		@ frame_needed = 1, uses_anonymous_args = 0
 162 0000 80B5     		push	{r7, lr}
 163              	.LCFI5:
ARM GAS  C:\Users\BIOMIM~1\AppData\Local\Temp\ccUOXzhW.s 			page 7


 164              		.cfi_def_cfa_offset 8
 165              		.cfi_offset 7, -8
 166              		.cfi_offset 14, -4
 167 0002 00AF     		add	r7, sp, #0
 168              	.LCFI6:
 169              		.cfi_def_cfa_register 7
 180:.\Generated_Source\PSoC5/QuadDec_2_Cnt16.c ****     if(QuadDec_2_Cnt16_initVar == 0u)
 170              		.loc 1 180 0
 171 0004 40F20003 		movw	r3, #:lower16:QuadDec_2_Cnt16_initVar
 172 0008 C0F20003 		movt	r3, #:upper16:QuadDec_2_Cnt16_initVar
 173 000c 1B78     		ldrb	r3, [r3, #0]	@ zero_extendqisi2
 174 000e 002B     		cmp	r3, #0
 175 0010 08D1     		bne	.L4
 181:.\Generated_Source\PSoC5/QuadDec_2_Cnt16.c ****     {
 182:.\Generated_Source\PSoC5/QuadDec_2_Cnt16.c ****         QuadDec_2_Cnt16_Init();
 176              		.loc 1 182 0
 177 0012 FFF7FEFF 		bl	QuadDec_2_Cnt16_Init
 183:.\Generated_Source\PSoC5/QuadDec_2_Cnt16.c ****         
 184:.\Generated_Source\PSoC5/QuadDec_2_Cnt16.c ****         QuadDec_2_Cnt16_initVar = 1u; /* Clear this bit for Initialization */        
 178              		.loc 1 184 0
 179 0016 40F20003 		movw	r3, #:lower16:QuadDec_2_Cnt16_initVar
 180 001a C0F20003 		movt	r3, #:upper16:QuadDec_2_Cnt16_initVar
 181 001e 4FF00102 		mov	r2, #1
 182 0022 1A70     		strb	r2, [r3, #0]
 183              	.L4:
 185:.\Generated_Source\PSoC5/QuadDec_2_Cnt16.c ****     }
 186:.\Generated_Source\PSoC5/QuadDec_2_Cnt16.c ****     
 187:.\Generated_Source\PSoC5/QuadDec_2_Cnt16.c ****     /* Enable the Counter */
 188:.\Generated_Source\PSoC5/QuadDec_2_Cnt16.c ****     QuadDec_2_Cnt16_Enable();        
 184              		.loc 1 188 0
 185 0024 FFF7FEFF 		bl	QuadDec_2_Cnt16_Enable
 189:.\Generated_Source\PSoC5/QuadDec_2_Cnt16.c **** }
 186              		.loc 1 189 0
 187 0028 80BD     		pop	{r7, pc}
 188              		.cfi_endproc
 189              	.LFE2:
 190              		.size	QuadDec_2_Cnt16_Start, .-QuadDec_2_Cnt16_Start
 191 002a 00BF     		.section	.text.QuadDec_2_Cnt16_Stop,"ax",%progbits
 192              		.align	2
 193              		.global	QuadDec_2_Cnt16_Stop
 194              		.thumb
 195              		.thumb_func
 196              		.type	QuadDec_2_Cnt16_Stop, %function
 197              	QuadDec_2_Cnt16_Stop:
 198              	.LFB3:
 190:.\Generated_Source\PSoC5/QuadDec_2_Cnt16.c **** 
 191:.\Generated_Source\PSoC5/QuadDec_2_Cnt16.c **** 
 192:.\Generated_Source\PSoC5/QuadDec_2_Cnt16.c **** /*******************************************************************************
 193:.\Generated_Source\PSoC5/QuadDec_2_Cnt16.c **** * Function Name: QuadDec_2_Cnt16_Stop
 194:.\Generated_Source\PSoC5/QuadDec_2_Cnt16.c **** ********************************************************************************
 195:.\Generated_Source\PSoC5/QuadDec_2_Cnt16.c **** * Summary:
 196:.\Generated_Source\PSoC5/QuadDec_2_Cnt16.c **** * Halts the counter, but does not change any modes or disable interrupts.
 197:.\Generated_Source\PSoC5/QuadDec_2_Cnt16.c **** *
 198:.\Generated_Source\PSoC5/QuadDec_2_Cnt16.c **** * Parameters:  
 199:.\Generated_Source\PSoC5/QuadDec_2_Cnt16.c **** *  void  
 200:.\Generated_Source\PSoC5/QuadDec_2_Cnt16.c **** *
 201:.\Generated_Source\PSoC5/QuadDec_2_Cnt16.c **** * Return: 
ARM GAS  C:\Users\BIOMIM~1\AppData\Local\Temp\ccUOXzhW.s 			page 8


 202:.\Generated_Source\PSoC5/QuadDec_2_Cnt16.c **** *  void
 203:.\Generated_Source\PSoC5/QuadDec_2_Cnt16.c **** *
 204:.\Generated_Source\PSoC5/QuadDec_2_Cnt16.c **** * Side Effects: If the Enable mode is set to Hardware only then this function
 205:.\Generated_Source\PSoC5/QuadDec_2_Cnt16.c **** *               has no effect on the operation of the counter.
 206:.\Generated_Source\PSoC5/QuadDec_2_Cnt16.c **** *
 207:.\Generated_Source\PSoC5/QuadDec_2_Cnt16.c **** *******************************************************************************/
 208:.\Generated_Source\PSoC5/QuadDec_2_Cnt16.c **** void QuadDec_2_Cnt16_Stop(void) 
 209:.\Generated_Source\PSoC5/QuadDec_2_Cnt16.c **** {
 199              		.loc 1 209 0
 200              		.cfi_startproc
 201              		@ args = 0, pretend = 0, frame = 0
 202              		@ frame_needed = 1, uses_anonymous_args = 0
 203              		@ link register save eliminated.
 204 0000 80B4     		push	{r7}
 205              	.LCFI7:
 206              		.cfi_def_cfa_offset 4
 207              		.cfi_offset 7, -4
 208 0002 00AF     		add	r7, sp, #0
 209              	.LCFI8:
 210              		.cfi_def_cfa_register 7
 210:.\Generated_Source\PSoC5/QuadDec_2_Cnt16.c ****     /* Disable Counter */
 211:.\Generated_Source\PSoC5/QuadDec_2_Cnt16.c ****     #if(!QuadDec_2_Cnt16_ControlRegRemoved || QuadDec_2_Cnt16_UsingFixedFunction)
 212:.\Generated_Source\PSoC5/QuadDec_2_Cnt16.c ****         QuadDec_2_Cnt16_CONTROL &= ((uint8)(~QuadDec_2_Cnt16_CTRL_ENABLE));        
 211              		.loc 1 212 0
 212 0004 46F27D43 		movw	r3, #25725
 213 0008 C4F20003 		movt	r3, 16384
 214 000c 46F27D42 		movw	r2, #25725
 215 0010 C4F20002 		movt	r2, 16384
 216 0014 1278     		ldrb	r2, [r2, #0]
 217 0016 D2B2     		uxtb	r2, r2
 218 0018 02F07F02 		and	r2, r2, #127
 219 001c D2B2     		uxtb	r2, r2
 220 001e 1A70     		strb	r2, [r3, #0]
 213:.\Generated_Source\PSoC5/QuadDec_2_Cnt16.c ****     #endif /* (!QuadDec_2_Cnt16_ControlRegRemoved || QuadDec_2_Cnt16_UsingFixedFunction) */
 214:.\Generated_Source\PSoC5/QuadDec_2_Cnt16.c ****     
 215:.\Generated_Source\PSoC5/QuadDec_2_Cnt16.c ****     /* Globally disable the Fixed Function Block chosen */
 216:.\Generated_Source\PSoC5/QuadDec_2_Cnt16.c ****     #if (QuadDec_2_Cnt16_UsingFixedFunction)
 217:.\Generated_Source\PSoC5/QuadDec_2_Cnt16.c ****         QuadDec_2_Cnt16_GLOBAL_ENABLE &= ((uint8)(~QuadDec_2_Cnt16_BLOCK_EN_MASK));
 218:.\Generated_Source\PSoC5/QuadDec_2_Cnt16.c ****         QuadDec_2_Cnt16_GLOBAL_STBY_ENABLE &= ((uint8)(~QuadDec_2_Cnt16_BLOCK_STBY_EN_MASK));
 219:.\Generated_Source\PSoC5/QuadDec_2_Cnt16.c ****     #endif /* (QuadDec_2_Cnt16_UsingFixedFunction) */
 220:.\Generated_Source\PSoC5/QuadDec_2_Cnt16.c **** }
 221              		.loc 1 220 0
 222 0020 BD46     		mov	sp, r7
 223 0022 80BC     		pop	{r7}
 224 0024 7047     		bx	lr
 225              		.cfi_endproc
 226              	.LFE3:
 227              		.size	QuadDec_2_Cnt16_Stop, .-QuadDec_2_Cnt16_Stop
 228 0026 00BF     		.section	.text.QuadDec_2_Cnt16_SetInterruptMode,"ax",%progbits
 229              		.align	2
 230              		.global	QuadDec_2_Cnt16_SetInterruptMode
 231              		.thumb
 232              		.thumb_func
 233              		.type	QuadDec_2_Cnt16_SetInterruptMode, %function
 234              	QuadDec_2_Cnt16_SetInterruptMode:
 235              	.LFB4:
 221:.\Generated_Source\PSoC5/QuadDec_2_Cnt16.c **** 
ARM GAS  C:\Users\BIOMIM~1\AppData\Local\Temp\ccUOXzhW.s 			page 9


 222:.\Generated_Source\PSoC5/QuadDec_2_Cnt16.c **** 
 223:.\Generated_Source\PSoC5/QuadDec_2_Cnt16.c **** /*******************************************************************************
 224:.\Generated_Source\PSoC5/QuadDec_2_Cnt16.c **** * Function Name: QuadDec_2_Cnt16_SetInterruptMode
 225:.\Generated_Source\PSoC5/QuadDec_2_Cnt16.c **** ********************************************************************************
 226:.\Generated_Source\PSoC5/QuadDec_2_Cnt16.c **** * Summary:
 227:.\Generated_Source\PSoC5/QuadDec_2_Cnt16.c **** * Configures which interrupt sources are enabled to generate the final interrupt
 228:.\Generated_Source\PSoC5/QuadDec_2_Cnt16.c **** *
 229:.\Generated_Source\PSoC5/QuadDec_2_Cnt16.c **** * Parameters:  
 230:.\Generated_Source\PSoC5/QuadDec_2_Cnt16.c **** *  InterruptsMask: This parameter is an or'd collection of the status bits
 231:.\Generated_Source\PSoC5/QuadDec_2_Cnt16.c **** *                   which will be allowed to generate the counters interrupt.   
 232:.\Generated_Source\PSoC5/QuadDec_2_Cnt16.c **** *
 233:.\Generated_Source\PSoC5/QuadDec_2_Cnt16.c **** * Return: 
 234:.\Generated_Source\PSoC5/QuadDec_2_Cnt16.c **** *  void
 235:.\Generated_Source\PSoC5/QuadDec_2_Cnt16.c **** *
 236:.\Generated_Source\PSoC5/QuadDec_2_Cnt16.c **** *******************************************************************************/
 237:.\Generated_Source\PSoC5/QuadDec_2_Cnt16.c **** void QuadDec_2_Cnt16_SetInterruptMode(uint8 interruptsMask) 
 238:.\Generated_Source\PSoC5/QuadDec_2_Cnt16.c **** {
 236              		.loc 1 238 0
 237              		.cfi_startproc
 238              		@ args = 0, pretend = 0, frame = 8
 239              		@ frame_needed = 1, uses_anonymous_args = 0
 240              		@ link register save eliminated.
 241 0000 80B4     		push	{r7}
 242              	.LCFI9:
 243              		.cfi_def_cfa_offset 4
 244              		.cfi_offset 7, -4
 245 0002 83B0     		sub	sp, sp, #12
 246              	.LCFI10:
 247              		.cfi_def_cfa_offset 16
 248 0004 00AF     		add	r7, sp, #0
 249              	.LCFI11:
 250              		.cfi_def_cfa_register 7
 251 0006 0346     		mov	r3, r0
 252 0008 FB71     		strb	r3, [r7, #7]
 239:.\Generated_Source\PSoC5/QuadDec_2_Cnt16.c ****     QuadDec_2_Cnt16_STATUS_MASK = interruptsMask;
 253              		.loc 1 239 0
 254 000a 46F28E43 		movw	r3, #25742
 255 000e C4F20003 		movt	r3, 16384
 256 0012 FA79     		ldrb	r2, [r7, #7]
 257 0014 1A70     		strb	r2, [r3, #0]
 240:.\Generated_Source\PSoC5/QuadDec_2_Cnt16.c **** }
 258              		.loc 1 240 0
 259 0016 07F10C07 		add	r7, r7, #12
 260 001a BD46     		mov	sp, r7
 261 001c 80BC     		pop	{r7}
 262 001e 7047     		bx	lr
 263              		.cfi_endproc
 264              	.LFE4:
 265              		.size	QuadDec_2_Cnt16_SetInterruptMode, .-QuadDec_2_Cnt16_SetInterruptMode
 266              		.section	.text.QuadDec_2_Cnt16_ReadStatusRegister,"ax",%progbits
 267              		.align	2
 268              		.global	QuadDec_2_Cnt16_ReadStatusRegister
 269              		.thumb
 270              		.thumb_func
 271              		.type	QuadDec_2_Cnt16_ReadStatusRegister, %function
 272              	QuadDec_2_Cnt16_ReadStatusRegister:
 273              	.LFB5:
ARM GAS  C:\Users\BIOMIM~1\AppData\Local\Temp\ccUOXzhW.s 			page 10


 241:.\Generated_Source\PSoC5/QuadDec_2_Cnt16.c **** 
 242:.\Generated_Source\PSoC5/QuadDec_2_Cnt16.c **** 
 243:.\Generated_Source\PSoC5/QuadDec_2_Cnt16.c **** /*******************************************************************************
 244:.\Generated_Source\PSoC5/QuadDec_2_Cnt16.c **** * Function Name: QuadDec_2_Cnt16_ReadStatusRegister
 245:.\Generated_Source\PSoC5/QuadDec_2_Cnt16.c **** ********************************************************************************
 246:.\Generated_Source\PSoC5/QuadDec_2_Cnt16.c **** * Summary:
 247:.\Generated_Source\PSoC5/QuadDec_2_Cnt16.c **** *   Reads the status register and returns it's state. This function should use
 248:.\Generated_Source\PSoC5/QuadDec_2_Cnt16.c **** *       defined types for the bit-field information as the bits in this
 249:.\Generated_Source\PSoC5/QuadDec_2_Cnt16.c **** *       register may be permuteable.
 250:.\Generated_Source\PSoC5/QuadDec_2_Cnt16.c **** *
 251:.\Generated_Source\PSoC5/QuadDec_2_Cnt16.c **** * Parameters:  
 252:.\Generated_Source\PSoC5/QuadDec_2_Cnt16.c **** *  void
 253:.\Generated_Source\PSoC5/QuadDec_2_Cnt16.c **** *
 254:.\Generated_Source\PSoC5/QuadDec_2_Cnt16.c **** * Return: 
 255:.\Generated_Source\PSoC5/QuadDec_2_Cnt16.c **** *  (uint8) The contents of the status register
 256:.\Generated_Source\PSoC5/QuadDec_2_Cnt16.c **** *
 257:.\Generated_Source\PSoC5/QuadDec_2_Cnt16.c **** * Side Effects:
 258:.\Generated_Source\PSoC5/QuadDec_2_Cnt16.c **** *   Status register bits may be clear on read. 
 259:.\Generated_Source\PSoC5/QuadDec_2_Cnt16.c **** *
 260:.\Generated_Source\PSoC5/QuadDec_2_Cnt16.c **** *******************************************************************************/
 261:.\Generated_Source\PSoC5/QuadDec_2_Cnt16.c **** uint8   QuadDec_2_Cnt16_ReadStatusRegister(void) 
 262:.\Generated_Source\PSoC5/QuadDec_2_Cnt16.c **** {
 274              		.loc 1 262 0
 275              		.cfi_startproc
 276              		@ args = 0, pretend = 0, frame = 0
 277              		@ frame_needed = 1, uses_anonymous_args = 0
 278              		@ link register save eliminated.
 279 0000 80B4     		push	{r7}
 280              	.LCFI12:
 281              		.cfi_def_cfa_offset 4
 282              		.cfi_offset 7, -4
 283 0002 00AF     		add	r7, sp, #0
 284              	.LCFI13:
 285              		.cfi_def_cfa_register 7
 263:.\Generated_Source\PSoC5/QuadDec_2_Cnt16.c ****     return QuadDec_2_Cnt16_STATUS;
 286              		.loc 1 263 0
 287 0004 46F26E43 		movw	r3, #25710
 288 0008 C4F20003 		movt	r3, 16384
 289 000c 1B78     		ldrb	r3, [r3, #0]
 290 000e DBB2     		uxtb	r3, r3
 264:.\Generated_Source\PSoC5/QuadDec_2_Cnt16.c **** }
 291              		.loc 1 264 0
 292 0010 1846     		mov	r0, r3
 293 0012 BD46     		mov	sp, r7
 294 0014 80BC     		pop	{r7}
 295 0016 7047     		bx	lr
 296              		.cfi_endproc
 297              	.LFE5:
 298              		.size	QuadDec_2_Cnt16_ReadStatusRegister, .-QuadDec_2_Cnt16_ReadStatusRegister
 299              		.section	.text.QuadDec_2_Cnt16_ReadControlRegister,"ax",%progbits
 300              		.align	2
 301              		.global	QuadDec_2_Cnt16_ReadControlRegister
 302              		.thumb
 303              		.thumb_func
 304              		.type	QuadDec_2_Cnt16_ReadControlRegister, %function
 305              	QuadDec_2_Cnt16_ReadControlRegister:
 306              	.LFB6:
ARM GAS  C:\Users\BIOMIM~1\AppData\Local\Temp\ccUOXzhW.s 			page 11


 265:.\Generated_Source\PSoC5/QuadDec_2_Cnt16.c **** 
 266:.\Generated_Source\PSoC5/QuadDec_2_Cnt16.c **** 
 267:.\Generated_Source\PSoC5/QuadDec_2_Cnt16.c **** #if(!QuadDec_2_Cnt16_ControlRegRemoved)
 268:.\Generated_Source\PSoC5/QuadDec_2_Cnt16.c **** /*******************************************************************************
 269:.\Generated_Source\PSoC5/QuadDec_2_Cnt16.c **** * Function Name: QuadDec_2_Cnt16_ReadControlRegister
 270:.\Generated_Source\PSoC5/QuadDec_2_Cnt16.c **** ********************************************************************************
 271:.\Generated_Source\PSoC5/QuadDec_2_Cnt16.c **** * Summary:
 272:.\Generated_Source\PSoC5/QuadDec_2_Cnt16.c **** *   Reads the control register and returns it's state. This function should use
 273:.\Generated_Source\PSoC5/QuadDec_2_Cnt16.c **** *       defined types for the bit-field information as the bits in this
 274:.\Generated_Source\PSoC5/QuadDec_2_Cnt16.c **** *       register may be permuteable.
 275:.\Generated_Source\PSoC5/QuadDec_2_Cnt16.c **** *
 276:.\Generated_Source\PSoC5/QuadDec_2_Cnt16.c **** * Parameters:  
 277:.\Generated_Source\PSoC5/QuadDec_2_Cnt16.c **** *  void
 278:.\Generated_Source\PSoC5/QuadDec_2_Cnt16.c **** *
 279:.\Generated_Source\PSoC5/QuadDec_2_Cnt16.c **** * Return: 
 280:.\Generated_Source\PSoC5/QuadDec_2_Cnt16.c **** *  (uint8) The contents of the control register
 281:.\Generated_Source\PSoC5/QuadDec_2_Cnt16.c **** *
 282:.\Generated_Source\PSoC5/QuadDec_2_Cnt16.c **** *******************************************************************************/
 283:.\Generated_Source\PSoC5/QuadDec_2_Cnt16.c **** uint8   QuadDec_2_Cnt16_ReadControlRegister(void) 
 284:.\Generated_Source\PSoC5/QuadDec_2_Cnt16.c **** {
 307              		.loc 1 284 0
 308              		.cfi_startproc
 309              		@ args = 0, pretend = 0, frame = 0
 310              		@ frame_needed = 1, uses_anonymous_args = 0
 311              		@ link register save eliminated.
 312 0000 80B4     		push	{r7}
 313              	.LCFI14:
 314              		.cfi_def_cfa_offset 4
 315              		.cfi_offset 7, -4
 316 0002 00AF     		add	r7, sp, #0
 317              	.LCFI15:
 318              		.cfi_def_cfa_register 7
 285:.\Generated_Source\PSoC5/QuadDec_2_Cnt16.c ****     return QuadDec_2_Cnt16_CONTROL;
 319              		.loc 1 285 0
 320 0004 46F27D43 		movw	r3, #25725
 321 0008 C4F20003 		movt	r3, 16384
 322 000c 1B78     		ldrb	r3, [r3, #0]
 323 000e DBB2     		uxtb	r3, r3
 286:.\Generated_Source\PSoC5/QuadDec_2_Cnt16.c **** }
 324              		.loc 1 286 0
 325 0010 1846     		mov	r0, r3
 326 0012 BD46     		mov	sp, r7
 327 0014 80BC     		pop	{r7}
 328 0016 7047     		bx	lr
 329              		.cfi_endproc
 330              	.LFE6:
 331              		.size	QuadDec_2_Cnt16_ReadControlRegister, .-QuadDec_2_Cnt16_ReadControlRegister
 332              		.section	.text.QuadDec_2_Cnt16_WriteControlRegister,"ax",%progbits
 333              		.align	2
 334              		.global	QuadDec_2_Cnt16_WriteControlRegister
 335              		.thumb
 336              		.thumb_func
 337              		.type	QuadDec_2_Cnt16_WriteControlRegister, %function
 338              	QuadDec_2_Cnt16_WriteControlRegister:
 339              	.LFB7:
 287:.\Generated_Source\PSoC5/QuadDec_2_Cnt16.c **** 
 288:.\Generated_Source\PSoC5/QuadDec_2_Cnt16.c **** 
ARM GAS  C:\Users\BIOMIM~1\AppData\Local\Temp\ccUOXzhW.s 			page 12


 289:.\Generated_Source\PSoC5/QuadDec_2_Cnt16.c **** /*******************************************************************************
 290:.\Generated_Source\PSoC5/QuadDec_2_Cnt16.c **** * Function Name: QuadDec_2_Cnt16_WriteControlRegister
 291:.\Generated_Source\PSoC5/QuadDec_2_Cnt16.c **** ********************************************************************************
 292:.\Generated_Source\PSoC5/QuadDec_2_Cnt16.c **** * Summary:
 293:.\Generated_Source\PSoC5/QuadDec_2_Cnt16.c **** *   Sets the bit-field of the control register.  This function should use
 294:.\Generated_Source\PSoC5/QuadDec_2_Cnt16.c **** *       defined types for the bit-field information as the bits in this
 295:.\Generated_Source\PSoC5/QuadDec_2_Cnt16.c **** *       register may be permuteable.
 296:.\Generated_Source\PSoC5/QuadDec_2_Cnt16.c **** *
 297:.\Generated_Source\PSoC5/QuadDec_2_Cnt16.c **** * Parameters:  
 298:.\Generated_Source\PSoC5/QuadDec_2_Cnt16.c **** *  void
 299:.\Generated_Source\PSoC5/QuadDec_2_Cnt16.c **** *
 300:.\Generated_Source\PSoC5/QuadDec_2_Cnt16.c **** * Return: 
 301:.\Generated_Source\PSoC5/QuadDec_2_Cnt16.c **** *  (uint8) The contents of the control register
 302:.\Generated_Source\PSoC5/QuadDec_2_Cnt16.c **** *
 303:.\Generated_Source\PSoC5/QuadDec_2_Cnt16.c **** *******************************************************************************/
 304:.\Generated_Source\PSoC5/QuadDec_2_Cnt16.c **** void    QuadDec_2_Cnt16_WriteControlRegister(uint8 control) 
 305:.\Generated_Source\PSoC5/QuadDec_2_Cnt16.c **** {
 340              		.loc 1 305 0
 341              		.cfi_startproc
 342              		@ args = 0, pretend = 0, frame = 8
 343              		@ frame_needed = 1, uses_anonymous_args = 0
 344              		@ link register save eliminated.
 345 0000 80B4     		push	{r7}
 346              	.LCFI16:
 347              		.cfi_def_cfa_offset 4
 348              		.cfi_offset 7, -4
 349 0002 83B0     		sub	sp, sp, #12
 350              	.LCFI17:
 351              		.cfi_def_cfa_offset 16
 352 0004 00AF     		add	r7, sp, #0
 353              	.LCFI18:
 354              		.cfi_def_cfa_register 7
 355 0006 0346     		mov	r3, r0
 356 0008 FB71     		strb	r3, [r7, #7]
 306:.\Generated_Source\PSoC5/QuadDec_2_Cnt16.c ****     QuadDec_2_Cnt16_CONTROL = control;
 357              		.loc 1 306 0
 358 000a 46F27D43 		movw	r3, #25725
 359 000e C4F20003 		movt	r3, 16384
 360 0012 FA79     		ldrb	r2, [r7, #7]
 361 0014 1A70     		strb	r2, [r3, #0]
 307:.\Generated_Source\PSoC5/QuadDec_2_Cnt16.c **** }
 362              		.loc 1 307 0
 363 0016 07F10C07 		add	r7, r7, #12
 364 001a BD46     		mov	sp, r7
 365 001c 80BC     		pop	{r7}
 366 001e 7047     		bx	lr
 367              		.cfi_endproc
 368              	.LFE7:
 369              		.size	QuadDec_2_Cnt16_WriteControlRegister, .-QuadDec_2_Cnt16_WriteControlRegister
 370              		.section	.text.QuadDec_2_Cnt16_WriteCounter,"ax",%progbits
 371              		.align	2
 372              		.global	QuadDec_2_Cnt16_WriteCounter
 373              		.thumb
 374              		.thumb_func
 375              		.type	QuadDec_2_Cnt16_WriteCounter, %function
 376              	QuadDec_2_Cnt16_WriteCounter:
 377              	.LFB8:
ARM GAS  C:\Users\BIOMIM~1\AppData\Local\Temp\ccUOXzhW.s 			page 13


 308:.\Generated_Source\PSoC5/QuadDec_2_Cnt16.c **** 
 309:.\Generated_Source\PSoC5/QuadDec_2_Cnt16.c **** #endif  /* (!QuadDec_2_Cnt16_ControlRegRemoved) */
 310:.\Generated_Source\PSoC5/QuadDec_2_Cnt16.c **** 
 311:.\Generated_Source\PSoC5/QuadDec_2_Cnt16.c **** 
 312:.\Generated_Source\PSoC5/QuadDec_2_Cnt16.c **** #if (!(QuadDec_2_Cnt16_UsingFixedFunction && (CY_PSOC5A)))
 313:.\Generated_Source\PSoC5/QuadDec_2_Cnt16.c **** /*******************************************************************************
 314:.\Generated_Source\PSoC5/QuadDec_2_Cnt16.c **** * Function Name: QuadDec_2_Cnt16_WriteCounter
 315:.\Generated_Source\PSoC5/QuadDec_2_Cnt16.c **** ********************************************************************************
 316:.\Generated_Source\PSoC5/QuadDec_2_Cnt16.c **** * Summary:
 317:.\Generated_Source\PSoC5/QuadDec_2_Cnt16.c **** *   This funtion is used to set the counter to a specific value
 318:.\Generated_Source\PSoC5/QuadDec_2_Cnt16.c **** *
 319:.\Generated_Source\PSoC5/QuadDec_2_Cnt16.c **** * Parameters:  
 320:.\Generated_Source\PSoC5/QuadDec_2_Cnt16.c **** *  counter:  New counter value. 
 321:.\Generated_Source\PSoC5/QuadDec_2_Cnt16.c **** *
 322:.\Generated_Source\PSoC5/QuadDec_2_Cnt16.c **** * Return: 
 323:.\Generated_Source\PSoC5/QuadDec_2_Cnt16.c **** *  void 
 324:.\Generated_Source\PSoC5/QuadDec_2_Cnt16.c **** *
 325:.\Generated_Source\PSoC5/QuadDec_2_Cnt16.c **** *******************************************************************************/
 326:.\Generated_Source\PSoC5/QuadDec_2_Cnt16.c **** void QuadDec_2_Cnt16_WriteCounter(uint16 counter) \
 327:.\Generated_Source\PSoC5/QuadDec_2_Cnt16.c ****                                    
 328:.\Generated_Source\PSoC5/QuadDec_2_Cnt16.c **** {
 378              		.loc 1 328 0
 379              		.cfi_startproc
 380              		@ args = 0, pretend = 0, frame = 8
 381              		@ frame_needed = 1, uses_anonymous_args = 0
 382              		@ link register save eliminated.
 383 0000 80B4     		push	{r7}
 384              	.LCFI19:
 385              		.cfi_def_cfa_offset 4
 386              		.cfi_offset 7, -4
 387 0002 83B0     		sub	sp, sp, #12
 388              	.LCFI20:
 389              		.cfi_def_cfa_offset 16
 390 0004 00AF     		add	r7, sp, #0
 391              	.LCFI21:
 392              		.cfi_def_cfa_register 7
 393 0006 0346     		mov	r3, r0
 394 0008 FB80     		strh	r3, [r7, #6]	@ movhi
 329:.\Generated_Source\PSoC5/QuadDec_2_Cnt16.c ****     #if(QuadDec_2_Cnt16_UsingFixedFunction)
 330:.\Generated_Source\PSoC5/QuadDec_2_Cnt16.c ****         /* assert if block is already enabled */
 331:.\Generated_Source\PSoC5/QuadDec_2_Cnt16.c ****         CYASSERT (0u == (QuadDec_2_Cnt16_GLOBAL_ENABLE & QuadDec_2_Cnt16_BLOCK_EN_MASK));
 332:.\Generated_Source\PSoC5/QuadDec_2_Cnt16.c ****         /* If block is disabled, enable it and then write the counter */
 333:.\Generated_Source\PSoC5/QuadDec_2_Cnt16.c ****         QuadDec_2_Cnt16_GLOBAL_ENABLE |= QuadDec_2_Cnt16_BLOCK_EN_MASK;
 334:.\Generated_Source\PSoC5/QuadDec_2_Cnt16.c ****         CY_SET_REG16(QuadDec_2_Cnt16_COUNTER_LSB_PTR, (uint16)counter);
 335:.\Generated_Source\PSoC5/QuadDec_2_Cnt16.c ****         QuadDec_2_Cnt16_GLOBAL_ENABLE &= ((uint8)(~QuadDec_2_Cnt16_BLOCK_EN_MASK));
 336:.\Generated_Source\PSoC5/QuadDec_2_Cnt16.c ****     #else
 337:.\Generated_Source\PSoC5/QuadDec_2_Cnt16.c ****         CY_SET_REG16(QuadDec_2_Cnt16_COUNTER_LSB_PTR, counter);
 395              		.loc 1 337 0
 396 000a 46F61C03 		movw	r3, #26652
 397 000e C4F20003 		movt	r3, 16384
 398 0012 FA88     		ldrh	r2, [r7, #6]	@ movhi
 399 0014 1A80     		strh	r2, [r3, #0]	@ movhi
 338:.\Generated_Source\PSoC5/QuadDec_2_Cnt16.c ****     #endif /* (QuadDec_2_Cnt16_UsingFixedFunction) */
 339:.\Generated_Source\PSoC5/QuadDec_2_Cnt16.c **** }
 400              		.loc 1 339 0
 401 0016 07F10C07 		add	r7, r7, #12
 402 001a BD46     		mov	sp, r7
ARM GAS  C:\Users\BIOMIM~1\AppData\Local\Temp\ccUOXzhW.s 			page 14


 403 001c 80BC     		pop	{r7}
 404 001e 7047     		bx	lr
 405              		.cfi_endproc
 406              	.LFE8:
 407              		.size	QuadDec_2_Cnt16_WriteCounter, .-QuadDec_2_Cnt16_WriteCounter
 408              		.section	.text.QuadDec_2_Cnt16_ReadCounter,"ax",%progbits
 409              		.align	2
 410              		.global	QuadDec_2_Cnt16_ReadCounter
 411              		.thumb
 412              		.thumb_func
 413              		.type	QuadDec_2_Cnt16_ReadCounter, %function
 414              	QuadDec_2_Cnt16_ReadCounter:
 415              	.LFB9:
 340:.\Generated_Source\PSoC5/QuadDec_2_Cnt16.c **** #endif /* (!(QuadDec_2_Cnt16_UsingFixedFunction && (CY_PSOC5A))) */
 341:.\Generated_Source\PSoC5/QuadDec_2_Cnt16.c **** 
 342:.\Generated_Source\PSoC5/QuadDec_2_Cnt16.c **** 
 343:.\Generated_Source\PSoC5/QuadDec_2_Cnt16.c **** /*******************************************************************************
 344:.\Generated_Source\PSoC5/QuadDec_2_Cnt16.c **** * Function Name: QuadDec_2_Cnt16_ReadCounter
 345:.\Generated_Source\PSoC5/QuadDec_2_Cnt16.c **** ********************************************************************************
 346:.\Generated_Source\PSoC5/QuadDec_2_Cnt16.c **** * Summary:
 347:.\Generated_Source\PSoC5/QuadDec_2_Cnt16.c **** * Returns the current value of the counter.  It doesn't matter
 348:.\Generated_Source\PSoC5/QuadDec_2_Cnt16.c **** * if the counter is enabled or running.
 349:.\Generated_Source\PSoC5/QuadDec_2_Cnt16.c **** *
 350:.\Generated_Source\PSoC5/QuadDec_2_Cnt16.c **** * Parameters:  
 351:.\Generated_Source\PSoC5/QuadDec_2_Cnt16.c **** *  void:  
 352:.\Generated_Source\PSoC5/QuadDec_2_Cnt16.c **** *
 353:.\Generated_Source\PSoC5/QuadDec_2_Cnt16.c **** * Return: 
 354:.\Generated_Source\PSoC5/QuadDec_2_Cnt16.c **** *  (uint16) The present value of the counter.
 355:.\Generated_Source\PSoC5/QuadDec_2_Cnt16.c **** *
 356:.\Generated_Source\PSoC5/QuadDec_2_Cnt16.c **** *******************************************************************************/
 357:.\Generated_Source\PSoC5/QuadDec_2_Cnt16.c **** uint16 QuadDec_2_Cnt16_ReadCounter(void) 
 358:.\Generated_Source\PSoC5/QuadDec_2_Cnt16.c **** {
 416              		.loc 1 358 0
 417              		.cfi_startproc
 418              		@ args = 0, pretend = 0, frame = 0
 419              		@ frame_needed = 1, uses_anonymous_args = 0
 420              		@ link register save eliminated.
 421 0000 80B4     		push	{r7}
 422              	.LCFI22:
 423              		.cfi_def_cfa_offset 4
 424              		.cfi_offset 7, -4
 425 0002 00AF     		add	r7, sp, #0
 426              	.LCFI23:
 427              		.cfi_def_cfa_register 7
 359:.\Generated_Source\PSoC5/QuadDec_2_Cnt16.c ****     /* Force capture by reading Accumulator */
 360:.\Generated_Source\PSoC5/QuadDec_2_Cnt16.c ****     /* Must first do a software capture to be able to read the counter */
 361:.\Generated_Source\PSoC5/QuadDec_2_Cnt16.c ****     /* It is up to the user code to make sure there isn't already captured data in the FIFO */
 362:.\Generated_Source\PSoC5/QuadDec_2_Cnt16.c ****     #if(QuadDec_2_Cnt16_UsingFixedFunction)
 363:.\Generated_Source\PSoC5/QuadDec_2_Cnt16.c **** 		(void)CY_GET_REG16(QuadDec_2_Cnt16_COUNTER_LSB_PTR);
 364:.\Generated_Source\PSoC5/QuadDec_2_Cnt16.c **** 	#else
 365:.\Generated_Source\PSoC5/QuadDec_2_Cnt16.c **** 		(void)CY_GET_REG8(QuadDec_2_Cnt16_COUNTER_LSB_PTR_8BIT);
 428              		.loc 1 365 0
 429 0004 46F20E43 		movw	r3, #25614
 430 0008 C4F20003 		movt	r3, 16384
 431 000c 1B78     		ldrb	r3, [r3, #0]
 366:.\Generated_Source\PSoC5/QuadDec_2_Cnt16.c **** 	#endif/* (QuadDec_2_Cnt16_UsingFixedFunction) */
 367:.\Generated_Source\PSoC5/QuadDec_2_Cnt16.c ****     
ARM GAS  C:\Users\BIOMIM~1\AppData\Local\Temp\ccUOXzhW.s 			page 15


 368:.\Generated_Source\PSoC5/QuadDec_2_Cnt16.c ****     /* Read the data from the FIFO (or capture register for Fixed Function)*/
 369:.\Generated_Source\PSoC5/QuadDec_2_Cnt16.c ****     #if(QuadDec_2_Cnt16_UsingFixedFunction)
 370:.\Generated_Source\PSoC5/QuadDec_2_Cnt16.c ****         return ((uint16)CY_GET_REG16(QuadDec_2_Cnt16_STATICCOUNT_LSB_PTR));
 371:.\Generated_Source\PSoC5/QuadDec_2_Cnt16.c ****     #else
 372:.\Generated_Source\PSoC5/QuadDec_2_Cnt16.c ****         return (CY_GET_REG16(QuadDec_2_Cnt16_STATICCOUNT_LSB_PTR));
 432              		.loc 1 372 0
 433 000e 46F69C03 		movw	r3, #26780
 434 0012 C4F20003 		movt	r3, 16384
 435 0016 1B88     		ldrh	r3, [r3, #0]	@ movhi
 436 0018 9BB2     		uxth	r3, r3
 373:.\Generated_Source\PSoC5/QuadDec_2_Cnt16.c ****     #endif /* (QuadDec_2_Cnt16_UsingFixedFunction) */
 374:.\Generated_Source\PSoC5/QuadDec_2_Cnt16.c **** }
 437              		.loc 1 374 0
 438 001a 1846     		mov	r0, r3
 439 001c BD46     		mov	sp, r7
 440 001e 80BC     		pop	{r7}
 441 0020 7047     		bx	lr
 442              		.cfi_endproc
 443              	.LFE9:
 444              		.size	QuadDec_2_Cnt16_ReadCounter, .-QuadDec_2_Cnt16_ReadCounter
 445 0022 00BF     		.section	.text.QuadDec_2_Cnt16_ReadCapture,"ax",%progbits
 446              		.align	2
 447              		.global	QuadDec_2_Cnt16_ReadCapture
 448              		.thumb
 449              		.thumb_func
 450              		.type	QuadDec_2_Cnt16_ReadCapture, %function
 451              	QuadDec_2_Cnt16_ReadCapture:
 452              	.LFB10:
 375:.\Generated_Source\PSoC5/QuadDec_2_Cnt16.c **** 
 376:.\Generated_Source\PSoC5/QuadDec_2_Cnt16.c **** 
 377:.\Generated_Source\PSoC5/QuadDec_2_Cnt16.c **** /*******************************************************************************
 378:.\Generated_Source\PSoC5/QuadDec_2_Cnt16.c **** * Function Name: QuadDec_2_Cnt16_ReadCapture
 379:.\Generated_Source\PSoC5/QuadDec_2_Cnt16.c **** ********************************************************************************
 380:.\Generated_Source\PSoC5/QuadDec_2_Cnt16.c **** * Summary:
 381:.\Generated_Source\PSoC5/QuadDec_2_Cnt16.c **** *   This function returns the last value captured.
 382:.\Generated_Source\PSoC5/QuadDec_2_Cnt16.c **** *
 383:.\Generated_Source\PSoC5/QuadDec_2_Cnt16.c **** * Parameters:  
 384:.\Generated_Source\PSoC5/QuadDec_2_Cnt16.c **** *  void
 385:.\Generated_Source\PSoC5/QuadDec_2_Cnt16.c **** *
 386:.\Generated_Source\PSoC5/QuadDec_2_Cnt16.c **** * Return: 
 387:.\Generated_Source\PSoC5/QuadDec_2_Cnt16.c **** *  (uint16) Present Capture value.
 388:.\Generated_Source\PSoC5/QuadDec_2_Cnt16.c **** *
 389:.\Generated_Source\PSoC5/QuadDec_2_Cnt16.c **** *******************************************************************************/
 390:.\Generated_Source\PSoC5/QuadDec_2_Cnt16.c **** uint16 QuadDec_2_Cnt16_ReadCapture(void) 
 391:.\Generated_Source\PSoC5/QuadDec_2_Cnt16.c **** {
 453              		.loc 1 391 0
 454              		.cfi_startproc
 455              		@ args = 0, pretend = 0, frame = 0
 456              		@ frame_needed = 1, uses_anonymous_args = 0
 457              		@ link register save eliminated.
 458 0000 80B4     		push	{r7}
 459              	.LCFI24:
 460              		.cfi_def_cfa_offset 4
 461              		.cfi_offset 7, -4
 462 0002 00AF     		add	r7, sp, #0
 463              	.LCFI25:
 464              		.cfi_def_cfa_register 7
ARM GAS  C:\Users\BIOMIM~1\AppData\Local\Temp\ccUOXzhW.s 			page 16


 392:.\Generated_Source\PSoC5/QuadDec_2_Cnt16.c ****     #if(QuadDec_2_Cnt16_UsingFixedFunction)
 393:.\Generated_Source\PSoC5/QuadDec_2_Cnt16.c ****         return ((uint16)CY_GET_REG16(QuadDec_2_Cnt16_STATICCOUNT_LSB_PTR));
 394:.\Generated_Source\PSoC5/QuadDec_2_Cnt16.c ****     #else
 395:.\Generated_Source\PSoC5/QuadDec_2_Cnt16.c ****         return (CY_GET_REG16(QuadDec_2_Cnt16_STATICCOUNT_LSB_PTR));
 465              		.loc 1 395 0
 466 0004 46F69C03 		movw	r3, #26780
 467 0008 C4F20003 		movt	r3, 16384
 468 000c 1B88     		ldrh	r3, [r3, #0]	@ movhi
 469 000e 9BB2     		uxth	r3, r3
 396:.\Generated_Source\PSoC5/QuadDec_2_Cnt16.c ****     #endif /* (QuadDec_2_Cnt16_UsingFixedFunction) */
 397:.\Generated_Source\PSoC5/QuadDec_2_Cnt16.c **** }
 470              		.loc 1 397 0
 471 0010 1846     		mov	r0, r3
 472 0012 BD46     		mov	sp, r7
 473 0014 80BC     		pop	{r7}
 474 0016 7047     		bx	lr
 475              		.cfi_endproc
 476              	.LFE10:
 477              		.size	QuadDec_2_Cnt16_ReadCapture, .-QuadDec_2_Cnt16_ReadCapture
 478              		.section	.text.QuadDec_2_Cnt16_WritePeriod,"ax",%progbits
 479              		.align	2
 480              		.global	QuadDec_2_Cnt16_WritePeriod
 481              		.thumb
 482              		.thumb_func
 483              		.type	QuadDec_2_Cnt16_WritePeriod, %function
 484              	QuadDec_2_Cnt16_WritePeriod:
 485              	.LFB11:
 398:.\Generated_Source\PSoC5/QuadDec_2_Cnt16.c **** 
 399:.\Generated_Source\PSoC5/QuadDec_2_Cnt16.c **** 
 400:.\Generated_Source\PSoC5/QuadDec_2_Cnt16.c **** /*******************************************************************************
 401:.\Generated_Source\PSoC5/QuadDec_2_Cnt16.c **** * Function Name: QuadDec_2_Cnt16_WritePeriod
 402:.\Generated_Source\PSoC5/QuadDec_2_Cnt16.c **** ********************************************************************************
 403:.\Generated_Source\PSoC5/QuadDec_2_Cnt16.c **** * Summary:
 404:.\Generated_Source\PSoC5/QuadDec_2_Cnt16.c **** * Changes the period of the counter.  The new period 
 405:.\Generated_Source\PSoC5/QuadDec_2_Cnt16.c **** * will be loaded the next time terminal count is detected.
 406:.\Generated_Source\PSoC5/QuadDec_2_Cnt16.c **** *
 407:.\Generated_Source\PSoC5/QuadDec_2_Cnt16.c **** * Parameters:  
 408:.\Generated_Source\PSoC5/QuadDec_2_Cnt16.c **** *  period: (uint16) A value of 0 will result in
 409:.\Generated_Source\PSoC5/QuadDec_2_Cnt16.c **** *         the counter remaining at zero.  
 410:.\Generated_Source\PSoC5/QuadDec_2_Cnt16.c **** *
 411:.\Generated_Source\PSoC5/QuadDec_2_Cnt16.c **** * Return: 
 412:.\Generated_Source\PSoC5/QuadDec_2_Cnt16.c **** *  void
 413:.\Generated_Source\PSoC5/QuadDec_2_Cnt16.c **** *
 414:.\Generated_Source\PSoC5/QuadDec_2_Cnt16.c **** *******************************************************************************/
 415:.\Generated_Source\PSoC5/QuadDec_2_Cnt16.c **** void QuadDec_2_Cnt16_WritePeriod(uint16 period) 
 416:.\Generated_Source\PSoC5/QuadDec_2_Cnt16.c **** {
 486              		.loc 1 416 0
 487              		.cfi_startproc
 488              		@ args = 0, pretend = 0, frame = 8
 489              		@ frame_needed = 1, uses_anonymous_args = 0
 490              		@ link register save eliminated.
 491 0000 80B4     		push	{r7}
 492              	.LCFI26:
 493              		.cfi_def_cfa_offset 4
 494              		.cfi_offset 7, -4
 495 0002 83B0     		sub	sp, sp, #12
 496              	.LCFI27:
ARM GAS  C:\Users\BIOMIM~1\AppData\Local\Temp\ccUOXzhW.s 			page 17


 497              		.cfi_def_cfa_offset 16
 498 0004 00AF     		add	r7, sp, #0
 499              	.LCFI28:
 500              		.cfi_def_cfa_register 7
 501 0006 0346     		mov	r3, r0
 502 0008 FB80     		strh	r3, [r7, #6]	@ movhi
 417:.\Generated_Source\PSoC5/QuadDec_2_Cnt16.c ****     #if(QuadDec_2_Cnt16_UsingFixedFunction)
 418:.\Generated_Source\PSoC5/QuadDec_2_Cnt16.c ****         CY_SET_REG16(QuadDec_2_Cnt16_PERIOD_LSB_PTR,(uint16)period);
 419:.\Generated_Source\PSoC5/QuadDec_2_Cnt16.c ****     #else
 420:.\Generated_Source\PSoC5/QuadDec_2_Cnt16.c ****         CY_SET_REG16(QuadDec_2_Cnt16_PERIOD_LSB_PTR, period);
 503              		.loc 1 420 0
 504 000a 46F65C03 		movw	r3, #26716
 505 000e C4F20003 		movt	r3, 16384
 506 0012 FA88     		ldrh	r2, [r7, #6]	@ movhi
 507 0014 1A80     		strh	r2, [r3, #0]	@ movhi
 421:.\Generated_Source\PSoC5/QuadDec_2_Cnt16.c ****     #endif /* (QuadDec_2_Cnt16_UsingFixedFunction) */
 422:.\Generated_Source\PSoC5/QuadDec_2_Cnt16.c **** }
 508              		.loc 1 422 0
 509 0016 07F10C07 		add	r7, r7, #12
 510 001a BD46     		mov	sp, r7
 511 001c 80BC     		pop	{r7}
 512 001e 7047     		bx	lr
 513              		.cfi_endproc
 514              	.LFE11:
 515              		.size	QuadDec_2_Cnt16_WritePeriod, .-QuadDec_2_Cnt16_WritePeriod
 516              		.section	.text.QuadDec_2_Cnt16_ReadPeriod,"ax",%progbits
 517              		.align	2
 518              		.global	QuadDec_2_Cnt16_ReadPeriod
 519              		.thumb
 520              		.thumb_func
 521              		.type	QuadDec_2_Cnt16_ReadPeriod, %function
 522              	QuadDec_2_Cnt16_ReadPeriod:
 523              	.LFB12:
 423:.\Generated_Source\PSoC5/QuadDec_2_Cnt16.c **** 
 424:.\Generated_Source\PSoC5/QuadDec_2_Cnt16.c **** 
 425:.\Generated_Source\PSoC5/QuadDec_2_Cnt16.c **** /*******************************************************************************
 426:.\Generated_Source\PSoC5/QuadDec_2_Cnt16.c **** * Function Name: QuadDec_2_Cnt16_ReadPeriod
 427:.\Generated_Source\PSoC5/QuadDec_2_Cnt16.c **** ********************************************************************************
 428:.\Generated_Source\PSoC5/QuadDec_2_Cnt16.c **** * Summary:
 429:.\Generated_Source\PSoC5/QuadDec_2_Cnt16.c **** * Reads the current period value without affecting counter operation.
 430:.\Generated_Source\PSoC5/QuadDec_2_Cnt16.c **** *
 431:.\Generated_Source\PSoC5/QuadDec_2_Cnt16.c **** * Parameters:  
 432:.\Generated_Source\PSoC5/QuadDec_2_Cnt16.c **** *  void:  
 433:.\Generated_Source\PSoC5/QuadDec_2_Cnt16.c **** *
 434:.\Generated_Source\PSoC5/QuadDec_2_Cnt16.c **** * Return: 
 435:.\Generated_Source\PSoC5/QuadDec_2_Cnt16.c **** *  (uint16) Present period value.
 436:.\Generated_Source\PSoC5/QuadDec_2_Cnt16.c **** *
 437:.\Generated_Source\PSoC5/QuadDec_2_Cnt16.c **** *******************************************************************************/
 438:.\Generated_Source\PSoC5/QuadDec_2_Cnt16.c **** uint16 QuadDec_2_Cnt16_ReadPeriod(void) 
 439:.\Generated_Source\PSoC5/QuadDec_2_Cnt16.c **** {
 524              		.loc 1 439 0
 525              		.cfi_startproc
 526              		@ args = 0, pretend = 0, frame = 0
 527              		@ frame_needed = 1, uses_anonymous_args = 0
 528              		@ link register save eliminated.
 529 0000 80B4     		push	{r7}
 530              	.LCFI29:
ARM GAS  C:\Users\BIOMIM~1\AppData\Local\Temp\ccUOXzhW.s 			page 18


 531              		.cfi_def_cfa_offset 4
 532              		.cfi_offset 7, -4
 533 0002 00AF     		add	r7, sp, #0
 534              	.LCFI30:
 535              		.cfi_def_cfa_register 7
 440:.\Generated_Source\PSoC5/QuadDec_2_Cnt16.c ****     #if(QuadDec_2_Cnt16_UsingFixedFunction)
 441:.\Generated_Source\PSoC5/QuadDec_2_Cnt16.c ****         return ((uint16)CY_GET_REG16(QuadDec_2_Cnt16_PERIOD_LSB_PTR));
 442:.\Generated_Source\PSoC5/QuadDec_2_Cnt16.c ****     #else
 443:.\Generated_Source\PSoC5/QuadDec_2_Cnt16.c ****         return (CY_GET_REG16(QuadDec_2_Cnt16_PERIOD_LSB_PTR));
 536              		.loc 1 443 0
 537 0004 46F65C03 		movw	r3, #26716
 538 0008 C4F20003 		movt	r3, 16384
 539 000c 1B88     		ldrh	r3, [r3, #0]	@ movhi
 540 000e 9BB2     		uxth	r3, r3
 444:.\Generated_Source\PSoC5/QuadDec_2_Cnt16.c ****     #endif /* (QuadDec_2_Cnt16_UsingFixedFunction) */
 445:.\Generated_Source\PSoC5/QuadDec_2_Cnt16.c **** }
 541              		.loc 1 445 0
 542 0010 1846     		mov	r0, r3
 543 0012 BD46     		mov	sp, r7
 544 0014 80BC     		pop	{r7}
 545 0016 7047     		bx	lr
 546              		.cfi_endproc
 547              	.LFE12:
 548              		.size	QuadDec_2_Cnt16_ReadPeriod, .-QuadDec_2_Cnt16_ReadPeriod
 549              		.section	.text.QuadDec_2_Cnt16_WriteCompare,"ax",%progbits
 550              		.align	2
 551              		.global	QuadDec_2_Cnt16_WriteCompare
 552              		.thumb
 553              		.thumb_func
 554              		.type	QuadDec_2_Cnt16_WriteCompare, %function
 555              	QuadDec_2_Cnt16_WriteCompare:
 556              	.LFB13:
 446:.\Generated_Source\PSoC5/QuadDec_2_Cnt16.c **** 
 447:.\Generated_Source\PSoC5/QuadDec_2_Cnt16.c **** 
 448:.\Generated_Source\PSoC5/QuadDec_2_Cnt16.c **** #if (!QuadDec_2_Cnt16_UsingFixedFunction)
 449:.\Generated_Source\PSoC5/QuadDec_2_Cnt16.c **** /*******************************************************************************
 450:.\Generated_Source\PSoC5/QuadDec_2_Cnt16.c **** * Function Name: QuadDec_2_Cnt16_WriteCompare
 451:.\Generated_Source\PSoC5/QuadDec_2_Cnt16.c **** ********************************************************************************
 452:.\Generated_Source\PSoC5/QuadDec_2_Cnt16.c **** * Summary:
 453:.\Generated_Source\PSoC5/QuadDec_2_Cnt16.c **** * Changes the compare value.  The compare output will 
 454:.\Generated_Source\PSoC5/QuadDec_2_Cnt16.c **** * reflect the new value on the next UDB clock.  The compare output will be 
 455:.\Generated_Source\PSoC5/QuadDec_2_Cnt16.c **** * driven high when the present counter value compares true based on the 
 456:.\Generated_Source\PSoC5/QuadDec_2_Cnt16.c **** * configured compare mode setting. 
 457:.\Generated_Source\PSoC5/QuadDec_2_Cnt16.c **** *
 458:.\Generated_Source\PSoC5/QuadDec_2_Cnt16.c **** * Parameters:  
 459:.\Generated_Source\PSoC5/QuadDec_2_Cnt16.c **** *  Compare:  New compare value. 
 460:.\Generated_Source\PSoC5/QuadDec_2_Cnt16.c **** *
 461:.\Generated_Source\PSoC5/QuadDec_2_Cnt16.c **** * Return: 
 462:.\Generated_Source\PSoC5/QuadDec_2_Cnt16.c **** *  void
 463:.\Generated_Source\PSoC5/QuadDec_2_Cnt16.c **** *
 464:.\Generated_Source\PSoC5/QuadDec_2_Cnt16.c **** *******************************************************************************/
 465:.\Generated_Source\PSoC5/QuadDec_2_Cnt16.c **** void QuadDec_2_Cnt16_WriteCompare(uint16 compare) \
 466:.\Generated_Source\PSoC5/QuadDec_2_Cnt16.c ****                                    
 467:.\Generated_Source\PSoC5/QuadDec_2_Cnt16.c **** {
 557              		.loc 1 467 0
 558              		.cfi_startproc
 559              		@ args = 0, pretend = 0, frame = 8
ARM GAS  C:\Users\BIOMIM~1\AppData\Local\Temp\ccUOXzhW.s 			page 19


 560              		@ frame_needed = 1, uses_anonymous_args = 0
 561              		@ link register save eliminated.
 562 0000 80B4     		push	{r7}
 563              	.LCFI31:
 564              		.cfi_def_cfa_offset 4
 565              		.cfi_offset 7, -4
 566 0002 83B0     		sub	sp, sp, #12
 567              	.LCFI32:
 568              		.cfi_def_cfa_offset 16
 569 0004 00AF     		add	r7, sp, #0
 570              	.LCFI33:
 571              		.cfi_def_cfa_register 7
 572 0006 0346     		mov	r3, r0
 573 0008 FB80     		strh	r3, [r7, #6]	@ movhi
 468:.\Generated_Source\PSoC5/QuadDec_2_Cnt16.c ****     #if(QuadDec_2_Cnt16_UsingFixedFunction)
 469:.\Generated_Source\PSoC5/QuadDec_2_Cnt16.c ****         CY_SET_REG16(QuadDec_2_Cnt16_COMPARE_LSB_PTR, (uint16)compare);
 470:.\Generated_Source\PSoC5/QuadDec_2_Cnt16.c ****     #else
 471:.\Generated_Source\PSoC5/QuadDec_2_Cnt16.c ****         CY_SET_REG16(QuadDec_2_Cnt16_COMPARE_LSB_PTR, compare);
 574              		.loc 1 471 0
 575 000a 46F67C03 		movw	r3, #26748
 576 000e C4F20003 		movt	r3, 16384
 577 0012 FA88     		ldrh	r2, [r7, #6]	@ movhi
 578 0014 1A80     		strh	r2, [r3, #0]	@ movhi
 472:.\Generated_Source\PSoC5/QuadDec_2_Cnt16.c ****     #endif /* (QuadDec_2_Cnt16_UsingFixedFunction) */
 473:.\Generated_Source\PSoC5/QuadDec_2_Cnt16.c **** }
 579              		.loc 1 473 0
 580 0016 07F10C07 		add	r7, r7, #12
 581 001a BD46     		mov	sp, r7
 582 001c 80BC     		pop	{r7}
 583 001e 7047     		bx	lr
 584              		.cfi_endproc
 585              	.LFE13:
 586              		.size	QuadDec_2_Cnt16_WriteCompare, .-QuadDec_2_Cnt16_WriteCompare
 587              		.section	.text.QuadDec_2_Cnt16_ReadCompare,"ax",%progbits
 588              		.align	2
 589              		.global	QuadDec_2_Cnt16_ReadCompare
 590              		.thumb
 591              		.thumb_func
 592              		.type	QuadDec_2_Cnt16_ReadCompare, %function
 593              	QuadDec_2_Cnt16_ReadCompare:
 594              	.LFB14:
 474:.\Generated_Source\PSoC5/QuadDec_2_Cnt16.c **** 
 475:.\Generated_Source\PSoC5/QuadDec_2_Cnt16.c **** 
 476:.\Generated_Source\PSoC5/QuadDec_2_Cnt16.c **** /*******************************************************************************
 477:.\Generated_Source\PSoC5/QuadDec_2_Cnt16.c **** * Function Name: QuadDec_2_Cnt16_ReadCompare
 478:.\Generated_Source\PSoC5/QuadDec_2_Cnt16.c **** ********************************************************************************
 479:.\Generated_Source\PSoC5/QuadDec_2_Cnt16.c **** * Summary:
 480:.\Generated_Source\PSoC5/QuadDec_2_Cnt16.c **** * Returns the compare value.
 481:.\Generated_Source\PSoC5/QuadDec_2_Cnt16.c **** *
 482:.\Generated_Source\PSoC5/QuadDec_2_Cnt16.c **** * Parameters:  
 483:.\Generated_Source\PSoC5/QuadDec_2_Cnt16.c **** *  void:
 484:.\Generated_Source\PSoC5/QuadDec_2_Cnt16.c **** *
 485:.\Generated_Source\PSoC5/QuadDec_2_Cnt16.c **** * Return: 
 486:.\Generated_Source\PSoC5/QuadDec_2_Cnt16.c **** *  (uint16) Present compare value.
 487:.\Generated_Source\PSoC5/QuadDec_2_Cnt16.c **** *
 488:.\Generated_Source\PSoC5/QuadDec_2_Cnt16.c **** *******************************************************************************/
 489:.\Generated_Source\PSoC5/QuadDec_2_Cnt16.c **** uint16 QuadDec_2_Cnt16_ReadCompare(void) 
ARM GAS  C:\Users\BIOMIM~1\AppData\Local\Temp\ccUOXzhW.s 			page 20


 490:.\Generated_Source\PSoC5/QuadDec_2_Cnt16.c **** {
 595              		.loc 1 490 0
 596              		.cfi_startproc
 597              		@ args = 0, pretend = 0, frame = 0
 598              		@ frame_needed = 1, uses_anonymous_args = 0
 599              		@ link register save eliminated.
 600 0000 80B4     		push	{r7}
 601              	.LCFI34:
 602              		.cfi_def_cfa_offset 4
 603              		.cfi_offset 7, -4
 604 0002 00AF     		add	r7, sp, #0
 605              	.LCFI35:
 606              		.cfi_def_cfa_register 7
 491:.\Generated_Source\PSoC5/QuadDec_2_Cnt16.c ****     return (CY_GET_REG16(QuadDec_2_Cnt16_COMPARE_LSB_PTR));
 607              		.loc 1 491 0
 608 0004 46F67C03 		movw	r3, #26748
 609 0008 C4F20003 		movt	r3, 16384
 610 000c 1B88     		ldrh	r3, [r3, #0]	@ movhi
 611 000e 9BB2     		uxth	r3, r3
 492:.\Generated_Source\PSoC5/QuadDec_2_Cnt16.c **** }
 612              		.loc 1 492 0
 613 0010 1846     		mov	r0, r3
 614 0012 BD46     		mov	sp, r7
 615 0014 80BC     		pop	{r7}
 616 0016 7047     		bx	lr
 617              		.cfi_endproc
 618              	.LFE14:
 619              		.size	QuadDec_2_Cnt16_ReadCompare, .-QuadDec_2_Cnt16_ReadCompare
 620              		.section	.text.QuadDec_2_Cnt16_ClearFIFO,"ax",%progbits
 621              		.align	2
 622              		.global	QuadDec_2_Cnt16_ClearFIFO
 623              		.thumb
 624              		.thumb_func
 625              		.type	QuadDec_2_Cnt16_ClearFIFO, %function
 626              	QuadDec_2_Cnt16_ClearFIFO:
 627              	.LFB15:
 493:.\Generated_Source\PSoC5/QuadDec_2_Cnt16.c **** 
 494:.\Generated_Source\PSoC5/QuadDec_2_Cnt16.c **** 
 495:.\Generated_Source\PSoC5/QuadDec_2_Cnt16.c **** #if (QuadDec_2_Cnt16_COMPARE_MODE_SOFTWARE)
 496:.\Generated_Source\PSoC5/QuadDec_2_Cnt16.c **** /*******************************************************************************
 497:.\Generated_Source\PSoC5/QuadDec_2_Cnt16.c **** * Function Name: QuadDec_2_Cnt16_SetCompareMode
 498:.\Generated_Source\PSoC5/QuadDec_2_Cnt16.c **** ********************************************************************************
 499:.\Generated_Source\PSoC5/QuadDec_2_Cnt16.c **** * Summary:
 500:.\Generated_Source\PSoC5/QuadDec_2_Cnt16.c **** *  Sets the software controlled Compare Mode.
 501:.\Generated_Source\PSoC5/QuadDec_2_Cnt16.c **** *
 502:.\Generated_Source\PSoC5/QuadDec_2_Cnt16.c **** * Parameters:
 503:.\Generated_Source\PSoC5/QuadDec_2_Cnt16.c **** *  compareMode:  Compare Mode Enumerated Type.
 504:.\Generated_Source\PSoC5/QuadDec_2_Cnt16.c **** *
 505:.\Generated_Source\PSoC5/QuadDec_2_Cnt16.c **** * Return:
 506:.\Generated_Source\PSoC5/QuadDec_2_Cnt16.c **** *  void
 507:.\Generated_Source\PSoC5/QuadDec_2_Cnt16.c **** *
 508:.\Generated_Source\PSoC5/QuadDec_2_Cnt16.c **** *******************************************************************************/
 509:.\Generated_Source\PSoC5/QuadDec_2_Cnt16.c **** void QuadDec_2_Cnt16_SetCompareMode(uint8 compareMode) 
 510:.\Generated_Source\PSoC5/QuadDec_2_Cnt16.c **** {
 511:.\Generated_Source\PSoC5/QuadDec_2_Cnt16.c ****     /* Clear the compare mode bits in the control register */
 512:.\Generated_Source\PSoC5/QuadDec_2_Cnt16.c ****     QuadDec_2_Cnt16_CONTROL &= ((uint8)(~QuadDec_2_Cnt16_CTRL_CMPMODE_MASK));
 513:.\Generated_Source\PSoC5/QuadDec_2_Cnt16.c ****     
ARM GAS  C:\Users\BIOMIM~1\AppData\Local\Temp\ccUOXzhW.s 			page 21


 514:.\Generated_Source\PSoC5/QuadDec_2_Cnt16.c ****     /* Write the new setting */
 515:.\Generated_Source\PSoC5/QuadDec_2_Cnt16.c ****     QuadDec_2_Cnt16_CONTROL |= compareMode;
 516:.\Generated_Source\PSoC5/QuadDec_2_Cnt16.c **** }
 517:.\Generated_Source\PSoC5/QuadDec_2_Cnt16.c **** #endif  /* (QuadDec_2_Cnt16_COMPARE_MODE_SOFTWARE) */
 518:.\Generated_Source\PSoC5/QuadDec_2_Cnt16.c **** 
 519:.\Generated_Source\PSoC5/QuadDec_2_Cnt16.c **** 
 520:.\Generated_Source\PSoC5/QuadDec_2_Cnt16.c **** #if (QuadDec_2_Cnt16_CAPTURE_MODE_SOFTWARE)
 521:.\Generated_Source\PSoC5/QuadDec_2_Cnt16.c **** /*******************************************************************************
 522:.\Generated_Source\PSoC5/QuadDec_2_Cnt16.c **** * Function Name: QuadDec_2_Cnt16_SetCaptureMode
 523:.\Generated_Source\PSoC5/QuadDec_2_Cnt16.c **** ********************************************************************************
 524:.\Generated_Source\PSoC5/QuadDec_2_Cnt16.c **** * Summary:
 525:.\Generated_Source\PSoC5/QuadDec_2_Cnt16.c **** *  Sets the software controlled Capture Mode.
 526:.\Generated_Source\PSoC5/QuadDec_2_Cnt16.c **** *
 527:.\Generated_Source\PSoC5/QuadDec_2_Cnt16.c **** * Parameters:
 528:.\Generated_Source\PSoC5/QuadDec_2_Cnt16.c **** *  captureMode:  Capture Mode Enumerated Type.
 529:.\Generated_Source\PSoC5/QuadDec_2_Cnt16.c **** *
 530:.\Generated_Source\PSoC5/QuadDec_2_Cnt16.c **** * Return:
 531:.\Generated_Source\PSoC5/QuadDec_2_Cnt16.c **** *  void
 532:.\Generated_Source\PSoC5/QuadDec_2_Cnt16.c **** *
 533:.\Generated_Source\PSoC5/QuadDec_2_Cnt16.c **** *******************************************************************************/
 534:.\Generated_Source\PSoC5/QuadDec_2_Cnt16.c **** void QuadDec_2_Cnt16_SetCaptureMode(uint8 captureMode) 
 535:.\Generated_Source\PSoC5/QuadDec_2_Cnt16.c **** {
 536:.\Generated_Source\PSoC5/QuadDec_2_Cnt16.c ****     /* Clear the capture mode bits in the control register */
 537:.\Generated_Source\PSoC5/QuadDec_2_Cnt16.c ****     QuadDec_2_Cnt16_CONTROL &= ((uint8)(~QuadDec_2_Cnt16_CTRL_CAPMODE_MASK));
 538:.\Generated_Source\PSoC5/QuadDec_2_Cnt16.c ****     
 539:.\Generated_Source\PSoC5/QuadDec_2_Cnt16.c ****     /* Write the new setting */
 540:.\Generated_Source\PSoC5/QuadDec_2_Cnt16.c ****     QuadDec_2_Cnt16_CONTROL |= ((uint8)((uint8)captureMode << QuadDec_2_Cnt16_CTRL_CAPMODE0_SHIFT))
 541:.\Generated_Source\PSoC5/QuadDec_2_Cnt16.c **** }
 542:.\Generated_Source\PSoC5/QuadDec_2_Cnt16.c **** #endif  /* (QuadDec_2_Cnt16_CAPTURE_MODE_SOFTWARE) */
 543:.\Generated_Source\PSoC5/QuadDec_2_Cnt16.c **** 
 544:.\Generated_Source\PSoC5/QuadDec_2_Cnt16.c **** 
 545:.\Generated_Source\PSoC5/QuadDec_2_Cnt16.c **** /*******************************************************************************
 546:.\Generated_Source\PSoC5/QuadDec_2_Cnt16.c **** * Function Name: QuadDec_2_Cnt16_ClearFIFO
 547:.\Generated_Source\PSoC5/QuadDec_2_Cnt16.c **** ********************************************************************************
 548:.\Generated_Source\PSoC5/QuadDec_2_Cnt16.c **** * Summary:
 549:.\Generated_Source\PSoC5/QuadDec_2_Cnt16.c **** *   This function clears all capture data from the capture FIFO
 550:.\Generated_Source\PSoC5/QuadDec_2_Cnt16.c **** *
 551:.\Generated_Source\PSoC5/QuadDec_2_Cnt16.c **** * Parameters:  
 552:.\Generated_Source\PSoC5/QuadDec_2_Cnt16.c **** *  void:
 553:.\Generated_Source\PSoC5/QuadDec_2_Cnt16.c **** *
 554:.\Generated_Source\PSoC5/QuadDec_2_Cnt16.c **** * Return: 
 555:.\Generated_Source\PSoC5/QuadDec_2_Cnt16.c **** *  None
 556:.\Generated_Source\PSoC5/QuadDec_2_Cnt16.c **** *
 557:.\Generated_Source\PSoC5/QuadDec_2_Cnt16.c **** *******************************************************************************/
 558:.\Generated_Source\PSoC5/QuadDec_2_Cnt16.c **** void QuadDec_2_Cnt16_ClearFIFO(void) 
 559:.\Generated_Source\PSoC5/QuadDec_2_Cnt16.c **** {
 628              		.loc 1 559 0
 629              		.cfi_startproc
 630              		@ args = 0, pretend = 0, frame = 0
 631              		@ frame_needed = 1, uses_anonymous_args = 0
 632 0000 80B5     		push	{r7, lr}
 633              	.LCFI36:
 634              		.cfi_def_cfa_offset 8
 635              		.cfi_offset 7, -8
 636              		.cfi_offset 14, -4
 637 0002 00AF     		add	r7, sp, #0
 638              	.LCFI37:
ARM GAS  C:\Users\BIOMIM~1\AppData\Local\Temp\ccUOXzhW.s 			page 22


 639              		.cfi_def_cfa_register 7
 560:.\Generated_Source\PSoC5/QuadDec_2_Cnt16.c **** 
 561:.\Generated_Source\PSoC5/QuadDec_2_Cnt16.c ****     while(0u != (QuadDec_2_Cnt16_ReadStatusRegister() & QuadDec_2_Cnt16_STATUS_FIFONEMP))
 640              		.loc 1 561 0
 641 0004 01E0     		b	.L24
 642              	.L25:
 562:.\Generated_Source\PSoC5/QuadDec_2_Cnt16.c ****     {
 563:.\Generated_Source\PSoC5/QuadDec_2_Cnt16.c ****         (void)QuadDec_2_Cnt16_ReadCapture();
 643              		.loc 1 563 0
 644 0006 FFF7FEFF 		bl	QuadDec_2_Cnt16_ReadCapture
 645              	.L24:
 561:.\Generated_Source\PSoC5/QuadDec_2_Cnt16.c ****     while(0u != (QuadDec_2_Cnt16_ReadStatusRegister() & QuadDec_2_Cnt16_STATUS_FIFONEMP))
 646              		.loc 1 561 0 discriminator 1
 647 000a FFF7FEFF 		bl	QuadDec_2_Cnt16_ReadStatusRegister
 648 000e 0346     		mov	r3, r0
 649 0010 03F04003 		and	r3, r3, #64
 650 0014 002B     		cmp	r3, #0
 651 0016 F6D1     		bne	.L25
 564:.\Generated_Source\PSoC5/QuadDec_2_Cnt16.c ****     }
 565:.\Generated_Source\PSoC5/QuadDec_2_Cnt16.c **** 
 566:.\Generated_Source\PSoC5/QuadDec_2_Cnt16.c **** }
 652              		.loc 1 566 0
 653 0018 80BD     		pop	{r7, pc}
 654              		.cfi_endproc
 655              	.LFE15:
 656              		.size	QuadDec_2_Cnt16_ClearFIFO, .-QuadDec_2_Cnt16_ClearFIFO
 657 001a 00BF     		.text
 658              	.Letext0:
 659              		.file 2 ".\\Generated_Source\\PSoC5\\cytypes.h"